

Microchip MPLAB XC8 Assembler V2.31 build 20201012212115 
                                                                                               Sun Jan 24 17:30:16 2021

Microchip MPLAB XC8 C Compiler v2.31 (Free license) build 20201012212115 Og1 
     1                           	processor	16F887
     2                           	pagewidth 120
     3                           	opt	flic
     4                           	psect	strings,global,class=STRING,delta=2,noexec
     5                           	psect	nvBANK0,global,class=BANK0,space=1,delta=1,noexec
     6                           	psect	cinit,global,class=CODE,merge=1,delta=2
     7                           	psect	bssBANK0,global,class=BANK0,space=1,delta=1,noexec
     8                           	psect	cstackCOMMON,global,class=COMMON,space=1,delta=1,noexec
     9                           	psect	cstackBANK0,global,class=BANK0,space=1,delta=1,noexec
    10                           	psect	maintext,global,class=CODE,split=1,delta=2
    11                           	psect	text1,local,class=CODE,merge=1,delta=2,group=1
    12                           	psect	text2,local,class=CODE,merge=1,delta=2
    13                           	psect	text3,local,class=CODE,merge=1,delta=2
    14                           	psect	text4,local,class=CODE,merge=1,delta=2
    15                           	psect	text5,local,class=CODE,merge=1,delta=2,group=1
    16                           	psect	text6,local,class=CODE,merge=1,delta=2,group=1
    17                           	psect	text7,local,class=CODE,merge=1,delta=2,group=1
    18                           	psect	text8,local,class=CODE,merge=1,delta=2,group=1
    19                           	psect	text9,local,class=CODE,merge=1,delta=2,group=1
    20                           	psect	text10,local,class=CODE,merge=1,delta=2
    21                           	psect	text11,local,class=CODE,merge=1,delta=2,group=1
    22                           	psect	config,global,abs,ovrld,class=CONFIG,space=4,delta=2,noexec
    23                           	dabs	1,0x7E,2
    24  0000                     
    25                           ; Version 2.20
    26                           ; Generated 12/02/2020 GMT
    27                           ; 
    28                           ; Copyright © 2020, Microchip Technology Inc. and its subsidiaries ("Microchip")
    29                           ; All rights reserved.
    30                           ; 
    31                           ; This software is developed by Microchip Technology Inc. and its subsidiaries ("Microch
      +                          ip").
    32                           ; 
    33                           ; Redistribution and use in source and binary forms, with or without modification, are
    34                           ; permitted provided that the following conditions are met:
    35                           ; 
    36                           ;     1. Redistributions of source code must retain the above copyright notice, this lis
      +                          t of
    37                           ;        conditions and the following disclaimer.
    38                           ; 
    39                           ;     2. Redistributions in binary form must reproduce the above copyright notice, this 
      +                          list
    40                           ;        of conditions and the following disclaimer in the documentation and/or other
    41                           ;        materials provided with the distribution.
    42                           ; 
    43                           ;     3. Microchip's name may not be used to endorse or promote products derived from th
      +                          is
    44                           ;        software without specific prior written permission.
    45                           ; 
    46                           ; THIS SOFTWARE IS PROVIDED BY MICROCHIP "AS IS" AND ANY EXPRESS OR IMPLIED WARRANTIES,
    47                           ; INCLUDING, BUT NOT LIMITED TO, THE IMPLIED WARRANTIES OF MERCHANTABILITY AND FITNESS F
      +                          OR
    48                           ; PURPOSE ARE DISCLAIMED.  IN NO EVENT SHALL MICROCHIP BE LIABLE FOR ANY DIRECT, INDIREC
      +                          T,
    49                           ; INCIDENTAL, SPECIAL, EXEMPLARY, OR CONSEQUENTIAL DAMAGES (INCLUDING BUT NOT LIMITED TO
    50                           ; PROCUREMENT OF SUBSTITUTE GOODS OR SERVICES; LOSS OF USE, DATA OR PROFITS; OR BUSINESS
    51                           ; INTERRUPTION) HOWSOEVER CAUSED AND ON ANY THEORY OF LIABILITY, WHETHER IN CONTRACT, ST
      +                          RICT
    52                           ; LIABILITY, OR TORT (INCLUDING NEGLIGENCE OR OTHERWISE) ARISING IN ANY WAY OUT OF THE U
      +                          SE OF
    53                           ; THIS SOFTWARE, EVEN IF ADVISED OF THE POSSIBILITY OF SUCH DAMAGE.
    54                           ; 
    55                           ; 
    56                           ; Code-generator required, PIC16F887 Definitions
    57                           ; 
    58                           ; SFR Addresses
    59  0000                     	;# 
    60  0001                     	;# 
    61  0002                     	;# 
    62  0003                     	;# 
    63  0004                     	;# 
    64  0005                     	;# 
    65  0006                     	;# 
    66  0007                     	;# 
    67  0008                     	;# 
    68  0009                     	;# 
    69  000A                     	;# 
    70  000B                     	;# 
    71  000C                     	;# 
    72  000D                     	;# 
    73  000E                     	;# 
    74  000E                     	;# 
    75  000F                     	;# 
    76  0010                     	;# 
    77  0011                     	;# 
    78  0012                     	;# 
    79  0013                     	;# 
    80  0014                     	;# 
    81  0015                     	;# 
    82  0015                     	;# 
    83  0016                     	;# 
    84  0017                     	;# 
    85  0018                     	;# 
    86  0019                     	;# 
    87  001A                     	;# 
    88  001B                     	;# 
    89  001B                     	;# 
    90  001C                     	;# 
    91  001D                     	;# 
    92  001E                     	;# 
    93  001F                     	;# 
    94  0081                     	;# 
    95  0085                     	;# 
    96  0086                     	;# 
    97  0087                     	;# 
    98  0088                     	;# 
    99  0089                     	;# 
   100  008C                     	;# 
   101  008D                     	;# 
   102  008E                     	;# 
   103  008F                     	;# 
   104  0090                     	;# 
   105  0091                     	;# 
   106  0092                     	;# 
   107  0093                     	;# 
   108  0093                     	;# 
   109  0093                     	;# 
   110  0094                     	;# 
   111  0095                     	;# 
   112  0096                     	;# 
   113  0097                     	;# 
   114  0098                     	;# 
   115  0099                     	;# 
   116  009A                     	;# 
   117  009B                     	;# 
   118  009C                     	;# 
   119  009D                     	;# 
   120  009E                     	;# 
   121  009F                     	;# 
   122  0105                     	;# 
   123  0107                     	;# 
   124  0108                     	;# 
   125  0109                     	;# 
   126  010C                     	;# 
   127  010C                     	;# 
   128  010D                     	;# 
   129  010E                     	;# 
   130  010F                     	;# 
   131  0185                     	;# 
   132  0187                     	;# 
   133  0188                     	;# 
   134  0189                     	;# 
   135  018C                     	;# 
   136  018D                     	;# 
   137  0000                     	;# 
   138  0001                     	;# 
   139  0002                     	;# 
   140  0003                     	;# 
   141  0004                     	;# 
   142  0005                     	;# 
   143  0006                     	;# 
   144  0007                     	;# 
   145  0008                     	;# 
   146  0009                     	;# 
   147  000A                     	;# 
   148  000B                     	;# 
   149  000C                     	;# 
   150  000D                     	;# 
   151  000E                     	;# 
   152  000E                     	;# 
   153  000F                     	;# 
   154  0010                     	;# 
   155  0011                     	;# 
   156  0012                     	;# 
   157  0013                     	;# 
   158  0014                     	;# 
   159  0015                     	;# 
   160  0015                     	;# 
   161  0016                     	;# 
   162  0017                     	;# 
   163  0018                     	;# 
   164  0019                     	;# 
   165  001A                     	;# 
   166  001B                     	;# 
   167  001B                     	;# 
   168  001C                     	;# 
   169  001D                     	;# 
   170  001E                     	;# 
   171  001F                     	;# 
   172  0081                     	;# 
   173  0085                     	;# 
   174  0086                     	;# 
   175  0087                     	;# 
   176  0088                     	;# 
   177  0089                     	;# 
   178  008C                     	;# 
   179  008D                     	;# 
   180  008E                     	;# 
   181  008F                     	;# 
   182  0090                     	;# 
   183  0091                     	;# 
   184  0092                     	;# 
   185  0093                     	;# 
   186  0093                     	;# 
   187  0093                     	;# 
   188  0094                     	;# 
   189  0095                     	;# 
   190  0096                     	;# 
   191  0097                     	;# 
   192  0098                     	;# 
   193  0099                     	;# 
   194  009A                     	;# 
   195  009B                     	;# 
   196  009C                     	;# 
   197  009D                     	;# 
   198  009E                     	;# 
   199  009F                     	;# 
   200  0105                     	;# 
   201  0107                     	;# 
   202  0108                     	;# 
   203  0109                     	;# 
   204  010C                     	;# 
   205  010C                     	;# 
   206  010D                     	;# 
   207  010E                     	;# 
   208  010F                     	;# 
   209  0185                     	;# 
   210  0187                     	;# 
   211  0188                     	;# 
   212  0189                     	;# 
   213  018C                     	;# 
   214  018D                     	;# 
   215  0000                     	;# 
   216  0001                     	;# 
   217  0002                     	;# 
   218  0003                     	;# 
   219  0004                     	;# 
   220  0005                     	;# 
   221  0006                     	;# 
   222  0007                     	;# 
   223  0008                     	;# 
   224  0009                     	;# 
   225  000A                     	;# 
   226  000B                     	;# 
   227  000C                     	;# 
   228  000D                     	;# 
   229  000E                     	;# 
   230  000E                     	;# 
   231  000F                     	;# 
   232  0010                     	;# 
   233  0011                     	;# 
   234  0012                     	;# 
   235  0013                     	;# 
   236  0014                     	;# 
   237  0015                     	;# 
   238  0015                     	;# 
   239  0016                     	;# 
   240  0017                     	;# 
   241  0018                     	;# 
   242  0019                     	;# 
   243  001A                     	;# 
   244  001B                     	;# 
   245  001B                     	;# 
   246  001C                     	;# 
   247  001D                     	;# 
   248  001E                     	;# 
   249  001F                     	;# 
   250  0081                     	;# 
   251  0085                     	;# 
   252  0086                     	;# 
   253  0087                     	;# 
   254  0088                     	;# 
   255  0089                     	;# 
   256  008C                     	;# 
   257  008D                     	;# 
   258  008E                     	;# 
   259  008F                     	;# 
   260  0090                     	;# 
   261  0091                     	;# 
   262  0092                     	;# 
   263  0093                     	;# 
   264  0093                     	;# 
   265  0093                     	;# 
   266  0094                     	;# 
   267  0095                     	;# 
   268  0096                     	;# 
   269  0097                     	;# 
   270  0098                     	;# 
   271  0099                     	;# 
   272  009A                     	;# 
   273  009B                     	;# 
   274  009C                     	;# 
   275  009D                     	;# 
   276  009E                     	;# 
   277  009F                     	;# 
   278  0105                     	;# 
   279  0107                     	;# 
   280  0108                     	;# 
   281  0109                     	;# 
   282  010C                     	;# 
   283  010C                     	;# 
   284  010D                     	;# 
   285  010E                     	;# 
   286  010F                     	;# 
   287  0185                     	;# 
   288  0187                     	;# 
   289  0188                     	;# 
   290  0189                     	;# 
   291  018C                     	;# 
   292  018D                     	;# 
   293                           
   294                           	psect	strings
   295  0800                     __pstrings:
   296  0800                     stringtab:
   297  0800                     __stringtab:
   298  0800                     stringcode:	
   299                           ;	String table - string pointers are 1 byte each
   300                           
   301  0800                     stringdir:
   302  0800  3008               	movlw	high stringdir
   303  0801  008A               	movwf	10
   304  0802  0804               	movf	4,w
   305  0803  0A84               	incf	4,f
   306  0804  0782               	addwf	2,f
   307  0805                     __stringbase:
   308  0805  3400               	retlw	0
   309  0806                     __end_of__stringtab:
   310  0806                     _LED7_HEX:
   311  0806  34C0               	retlw	192
   312  0807  34F9               	retlw	249
   313  0808  34A4               	retlw	164
   314  0809  34B0               	retlw	176
   315  080A  3499               	retlw	153
   316  080B  3492               	retlw	146
   317  080C  3482               	retlw	130
   318  080D  34F8               	retlw	248
   319  080E  3480               	retlw	128
   320  080F  3490               	retlw	144
   321  0810  3440               	retlw	64
   322  0811  3479               	retlw	121
   323  0812  3424               	retlw	36
   324  0813  3430               	retlw	48
   325  0814  3419               	retlw	25
   326  0815  3412               	retlw	18
   327  0816  3402               	retlw	2
   328  0817  3478               	retlw	120
   329  0818  3400               	retlw	0
   330  0819  3410               	retlw	16
   331  081A                     __end_of_LED7_HEX:
   332                           
   333                           	psect	nvBANK0
   334  0056                     __pnvBANK0:
   335  0056                     _cnt:
   336  0056                     	ds	2
   337  0006                     _PORTB	set	6
   338  000E                     _TMR1L	set	14
   339  000F                     _TMR1H	set	15
   340  0010                     _T1CONbits	set	16
   341  0040                     _RD0	set	64
   342  0041                     _RD1	set	65
   343  0042                     _RD2	set	66
   344  0043                     _RD3	set	67
   345  009F                     _ADCON1	set	159
   346  0086                     _TRISB	set	134
   347  0088                     _TRISD	set	136
   348  0438                     _TRISC0	set	1080
   349                           
   350                           	psect	cinit
   351  07F6                     start_initialization:	
   352                           ; #config settings
   353                           
   354  07F6                     __initialization:
   355                           
   356                           ; Clear objects allocated to BANK0
   357  07F6  1283               	bcf	3,5	;RP0=0, select bank0
   358  07F7  1303               	bcf	3,6	;RP1=0, select bank0
   359  07F8  01D2               	clrf	__pbssBANK0& (0+127)
   360  07F9  01D3               	clrf	(__pbssBANK0+1)& (0+127)
   361  07FA  01D4               	clrf	(__pbssBANK0+2)& (0+127)
   362  07FB  01D5               	clrf	(__pbssBANK0+3)& (0+127)
   363  07FC                     end_of_initialization:	
   364                           ;End of C runtime variable initialization code
   365                           
   366  07FC                     __end_of__initialization:
   367  07FC  0183               	clrf	3
   368  07FD  120A  158A  2F5C   	ljmp	_main	;jump to C main() function
   369                           
   370                           	psect	bssBANK0
   371  0052                     __pbssBANK0:
   372  0052                     _buffer:
   373  0052                     	ds	4
   374                           
   375                           	psect	cstackCOMMON
   376  0070                     __pcstackCOMMON:
   377  0070                     ?___flge:
   378  0070                     ?_main:	
   379                           ; 1 bit 
   380                           
   381  0070                     ?_Led7_displayUnit:	
   382                           ; 1 bytes @ 0x0
   383                           
   384  0070                     ??_Led7_displayUnit:	
   385                           ; 1 bytes @ 0x0
   386                           
   387  0070                     ?__Umul8_16:	
   388                           ; 1 bytes @ 0x0
   389                           
   390  0070                     ?___awdiv:	
   391                           ; 2 bytes @ 0x0
   392                           
   393  0070                     ?___awmod:	
   394                           ; 2 bytes @ 0x0
   395                           
   396  0070                     ?___xxtofl:	
   397                           ; 2 bytes @ 0x0
   398                           
   399  0070                     Led7_displayUnit@number:	
   400                           ; 4 bytes @ 0x0
   401                           
   402  0070                     __Umul8_16@multiplicand:	
   403                           ; 1 bytes @ 0x0
   404                           
   405  0070                     ___awdiv@divisor:	
   406                           ; 1 bytes @ 0x0
   407                           
   408  0070                     ___awmod@divisor:	
   409                           ; 2 bytes @ 0x0
   410                           
   411  0070                     ___flge@ff1:	
   412                           ; 2 bytes @ 0x0
   413                           
   414  0070                     ___xxtofl@val:	
   415                           ; 4 bytes @ 0x0
   416                           
   417                           
   418                           ; 4 bytes @ 0x0
   419  0070                     	ds	2
   420  0072                     ??__Umul8_16:
   421  0072                     ___awdiv@dividend:	
   422                           ; 1 bytes @ 0x2
   423                           
   424  0072                     ___awmod@dividend:	
   425                           ; 2 bytes @ 0x2
   426                           
   427                           
   428                           ; 2 bytes @ 0x2
   429  0072                     	ds	2
   430  0074                     ??___awdiv:
   431  0074                     ??___awmod:	
   432                           ; 1 bytes @ 0x4
   433                           
   434  0074                     ??___xxtofl:	
   435                           ; 1 bytes @ 0x4
   436                           
   437  0074                     __Umul8_16@product:	
   438                           ; 1 bytes @ 0x4
   439                           
   440  0074                     ___flge@ff2:	
   441                           ; 2 bytes @ 0x4
   442                           
   443                           
   444                           ; 4 bytes @ 0x4
   445  0074                     	ds	1
   446  0075                     ___awdiv@counter:
   447  0075                     ___awmod@counter:	
   448                           ; 1 bytes @ 0x5
   449                           
   450                           
   451                           ; 1 bytes @ 0x5
   452  0075                     	ds	1
   453  0076                     ___awdiv@sign:
   454  0076                     ___awmod@sign:	
   455                           ; 1 bytes @ 0x6
   456                           
   457  0076                     __Umul8_16@word_mpld:	
   458                           ; 1 bytes @ 0x6
   459                           
   460                           
   461                           ; 2 bytes @ 0x6
   462  0076                     	ds	1
   463  0077                     ___awdiv@quotient:
   464                           
   465                           ; 2 bytes @ 0x7
   466  0077                     	ds	1
   467  0078                     ??___flge:
   468  0078                     __Umul8_16@multiplier:	
   469                           ; 1 bytes @ 0x8
   470                           
   471  0078                     ___xxtofl@sign:	
   472                           ; 1 bytes @ 0x8
   473                           
   474                           
   475                           ; 1 bytes @ 0x8
   476  0078                     	ds	1
   477  0079                     ??___flmul:
   478  0079                     ___xxtofl@exp:	
   479                           ; 1 bytes @ 0x9
   480                           
   481                           
   482                           ; 1 bytes @ 0x9
   483  0079                     	ds	1
   484  007A                     ___xxtofl@arg:
   485                           
   486                           ; 4 bytes @ 0xA
   487  007A                     	ds	2
   488  007C                     ??_Led7_pointIndex:
   489                           
   490                           ; 1 bytes @ 0xC
   491  007C                     	ds	2
   492                           
   493                           	psect	cstackBANK0
   494  0020                     __pcstackBANK0:
   495  0020                     ?_Led7_pointIndex:
   496  0020                     ?___flmul:	
   497                           ; 1 bytes @ 0x0
   498                           
   499  0020                     Led7_pointIndex@num:	
   500                           ; 4 bytes @ 0x0
   501                           
   502  0020                     ___flmul@b:	
   503                           ; 4 bytes @ 0x0
   504                           
   505                           
   506                           ; 4 bytes @ 0x0
   507  0020                     	ds	4
   508  0024                     ___flmul@a:
   509                           
   510                           ; 4 bytes @ 0x4
   511  0024                     	ds	4
   512  0028                     ___flmul@sign:
   513                           
   514                           ; 1 bytes @ 0x8
   515  0028                     	ds	1
   516  0029                     ___flmul@grs:
   517                           
   518                           ; 4 bytes @ 0x9
   519  0029                     	ds	4
   520  002D                     ___flmul@aexp:
   521                           
   522                           ; 1 bytes @ 0xD
   523  002D                     	ds	1
   524  002E                     ___flmul@bexp:
   525                           
   526                           ; 1 bytes @ 0xE
   527  002E                     	ds	1
   528  002F                     ___flmul@prod:
   529                           
   530                           ; 4 bytes @ 0xF
   531  002F                     	ds	4
   532  0033                     ___flmul@temp:
   533                           
   534                           ; 2 bytes @ 0x13
   535  0033                     	ds	2
   536  0035                     ?___fltol:
   537  0035                     ___fltol@f1:	
   538                           ; 4 bytes @ 0x15
   539                           
   540                           
   541                           ; 4 bytes @ 0x15
   542  0035                     	ds	4
   543  0039                     ??___fltol:
   544                           
   545                           ; 1 bytes @ 0x19
   546  0039                     	ds	5
   547  003E                     ___fltol@sign1:
   548                           
   549                           ; 1 bytes @ 0x1E
   550  003E                     	ds	1
   551  003F                     ___fltol@exp1:
   552                           
   553                           ; 1 bytes @ 0x1F
   554  003F                     	ds	1
   555  0040                     ?_Led7_addFloatToBuffer:
   556  0040                     Led7_addFloatToBuffer@num:	
   557                           ; 1 bytes @ 0x20
   558                           
   559                           
   560                           ; 4 bytes @ 0x20
   561  0040                     	ds	4
   562  0044                     ??_Led7_addFloatToBuffer:
   563                           
   564                           ; 1 bytes @ 0x24
   565  0044                     	ds	1
   566  0045                     Led7_addFloatToBuffer@newNum:
   567                           
   568                           ; 2 bytes @ 0x25
   569  0045                     	ds	2
   570  0047                     Led7_addFloatToBuffer@i:
   571                           
   572                           ; 2 bytes @ 0x27
   573  0047                     	ds	2
   574  0049                     Led7_addFloatToBuffer@p:
   575                           
   576                           ; 1 bytes @ 0x29
   577  0049                     	ds	1
   578  004A                     ?_Led7_display:
   579  004A                     Led7_display@num:	
   580                           ; 1 bytes @ 0x2A
   581                           
   582                           
   583                           ; 4 bytes @ 0x2A
   584  004A                     	ds	4
   585  004E                     ??_Led7_display:
   586                           
   587                           ; 1 bytes @ 0x2E
   588  004E                     	ds	2
   589  0050                     ??_main:
   590                           
   591                           ; 1 bytes @ 0x30
   592  0050                     	ds	2
   593                           
   594                           	psect	maintext
   595  0F5C                     __pmaintext:	
   596 ;;
   597 ;;Main: autosize = 0, tempsize = 2, incstack = 0, save=0
   598 ;;
   599 ;; *************** function _main *****************
   600 ;; Defined at:
   601 ;;		line 57 in file "timer.c"
   602 ;; Parameters:    Size  Location     Type
   603 ;;		None
   604 ;; Auto vars:     Size  Location     Type
   605 ;;		None
   606 ;; Return value:  Size  Location     Type
   607 ;;                  1    wreg      void 
   608 ;; Registers used:
   609 ;;		wreg, fsr0l, fsr0h, status,2, status,0, btemp+1, pclath, cstack
   610 ;; Tracked objects:
   611 ;;		On entry : B00/0
   612 ;;		On exit  : 0/0
   613 ;;		Unchanged: 0/0
   614 ;; Data sizes:     COMMON   BANK0   BANK1   BANK3   BANK2
   615 ;;      Params:         0       0       0       0       0
   616 ;;      Locals:         0       0       0       0       0
   617 ;;      Temps:          0       2       0       0       0
   618 ;;      Totals:         0       2       0       0       0
   619 ;;Total ram usage:        2 bytes
   620 ;; Hardware stack levels required when called:    4
   621 ;; This function calls:
   622 ;;		_Led7_display
   623 ;;		___xxtofl
   624 ;; This function is called by:
   625 ;;		Startup code after reset
   626 ;; This function uses a non-reentrant model
   627 ;;
   628                           
   629                           
   630                           ;psect for function _main
   631  0F5C                     _main:
   632  0F5C                     l1568:	
   633                           ;incstack = 0
   634                           ; Regs used in _main: [wreg-fsr0h+status,2+status,0+btemp+1+pclath+cstack]
   635                           
   636                           
   637                           ;timer.c: 60:     T1CONbits.TMR1CS = 1;
   638  0F5C  1283               	bcf	3,5	;RP0=0, select bank0
   639  0F5D  1303               	bcf	3,6	;RP1=0, select bank0
   640  0F5E  1490               	bsf	16,1	;volatile
   641                           
   642                           ;timer.c: 61:     T1CONbits.T1CKPS0 = 0;
   643  0F5F  1210               	bcf	16,4	;volatile
   644                           
   645                           ;timer.c: 62:     T1CONbits.T1CKPS1 = 0;
   646  0F60  1290               	bcf	16,5	;volatile
   647                           
   648                           ;timer.c: 63:     T1CONbits.TMR1ON = 1;
   649  0F61  1410               	bsf	16,0	;volatile
   650  0F62                     l1570:
   651                           
   652                           ;timer.c: 64:     TMR1H = TMR1L = 0;
   653  0F62  018E               	clrf	14	;volatile
   654  0F63  018F               	clrf	15	;volatile
   655  0F64                     l1572:
   656                           
   657                           ;timer.c: 65:     TRISC0 = 1;
   658  0F64  1683               	bsf	3,5	;RP0=1, select bank1
   659  0F65  1303               	bcf	3,6	;RP1=0, select bank1
   660  0F66  1407               	bsf	7,0	;volatile
   661                           
   662                           ;timer.c: 66:     TRISD = 0;
   663  0F67  0188               	clrf	8	;volatile
   664                           
   665                           ;timer.c: 67:     TRISB = 0;
   666  0F68  0186               	clrf	6	;volatile
   667  0F69                     l1574:
   668                           
   669                           ;timer.c: 68:     ADCON1 |= 0x07;
   670  0F69  3007               	movlw	7
   671  0F6A  1283               	bcf	3,5	;RP0=0, select bank0
   672  0F6B  1303               	bcf	3,6	;RP1=0, select bank0
   673  0F6C  00D0               	movwf	??_main
   674  0F6D  0850               	movf	??_main,w
   675  0F6E  1683               	bsf	3,5	;RP0=1, select bank1
   676  0F6F  1303               	bcf	3,6	;RP1=0, select bank1
   677  0F70  049F               	iorwf	31,f	;volatile
   678  0F71                     l1576:
   679                           
   680                           ;timer.c: 70:     {;timer.c: 71:         cnt = TMR1H ;
   681  0F71  1283               	bcf	3,5	;RP0=0, select bank0
   682  0F72  1303               	bcf	3,6	;RP1=0, select bank0
   683  0F73  080F               	movf	15,w	;volatile
   684  0F74  00D0               	movwf	??_main
   685  0F75  01D1               	clrf	??_main+1
   686  0F76  0850               	movf	??_main,w
   687  0F77  00D6               	movwf	_cnt
   688  0F78  0851               	movf	??_main+1,w
   689  0F79  00D7               	movwf	_cnt+1
   690  0F7A                     l1578:
   691                           
   692                           ;timer.c: 72:         cnt <<= 8;
   693  0F7A  3008               	movlw	8
   694  0F7B                     u2045:
   695  0F7B  1003               	clrc
   696  0F7C  0DD6               	rlf	_cnt,f
   697  0F7D  0DD7               	rlf	_cnt+1,f
   698  0F7E  3EFF               	addlw	-1
   699  0F7F  1D03               	skipz
   700  0F80  2F7B               	goto	u2045
   701  0F81                     l1580:
   702                           
   703                           ;timer.c: 73:         cnt |= TMR1L;
   704  0F81  080E               	movf	14,w	;volatile
   705  0F82  00D0               	movwf	??_main
   706  0F83  01D1               	clrf	??_main+1
   707  0F84  0850               	movf	??_main,w
   708  0F85  04D6               	iorwf	_cnt,f
   709  0F86  0851               	movf	??_main+1,w
   710  0F87  04D7               	iorwf	_cnt+1,f
   711  0F88                     l1582:
   712                           
   713                           ;timer.c: 74:         Led7_display(cnt);
   714  0F88  0856               	movf	_cnt,w
   715  0F89  00F0               	movwf	___xxtofl@val
   716  0F8A  0857               	movf	_cnt+1,w
   717  0F8B  00F1               	movwf	___xxtofl@val+1
   718  0F8C  01F2               	clrf	___xxtofl@val+2
   719  0F8D  01F3               	clrf	___xxtofl@val+3
   720  0F8E  3000               	movlw	0
   721  0F8F  120A  118A  22D0  120A  158A  	fcall	___xxtofl
   722  0F94  0873               	movf	?___xxtofl+3,w
   723  0F95  1283               	bcf	3,5	;RP0=0, select bank0
   724  0F96  1303               	bcf	3,6	;RP1=0, select bank0
   725  0F97  00CD               	movwf	Led7_display@num+3
   726  0F98  0872               	movf	?___xxtofl+2,w
   727  0F99  00CC               	movwf	Led7_display@num+2
   728  0F9A  0871               	movf	?___xxtofl+1,w
   729  0F9B  00CB               	movwf	Led7_display@num+1
   730  0F9C  0870               	movf	?___xxtofl,w
   731  0F9D  00CA               	movwf	Led7_display@num
   732  0F9E  120A  118A  209E  120A  158A  	fcall	_Led7_display
   733  0FA3  2F71               	goto	l1576
   734  0FA4  120A  118A  2800   	ljmp	start
   735  0FA7                     __end_of_main:
   736                           
   737                           	psect	text1
   738  02D0                     __ptext1:	
   739 ;; *************** function ___xxtofl *****************
   740 ;; Defined at:
   741 ;;		line 10 in file "C:\Program Files\Microchip\xc8\v2.31\pic\sources\c90\common\xxtofl.c"
   742 ;; Parameters:    Size  Location     Type
   743 ;;  sign            1    wreg     unsigned char 
   744 ;;  val             4    0[COMMON] long 
   745 ;; Auto vars:     Size  Location     Type
   746 ;;  sign            1    8[COMMON] unsigned char 
   747 ;;  arg             4   10[COMMON] unsigned long 
   748 ;;  exp             1    9[COMMON] unsigned char 
   749 ;; Return value:  Size  Location     Type
   750 ;;                  4    0[COMMON] unsigned char 
   751 ;; Registers used:
   752 ;;		wreg, status,2, status,0
   753 ;; Tracked objects:
   754 ;;		On entry : 0/0
   755 ;;		On exit  : 0/0
   756 ;;		Unchanged: 0/0
   757 ;; Data sizes:     COMMON   BANK0   BANK1   BANK3   BANK2
   758 ;;      Params:         4       0       0       0       0
   759 ;;      Locals:         6       0       0       0       0
   760 ;;      Temps:          4       0       0       0       0
   761 ;;      Totals:        14       0       0       0       0
   762 ;;Total ram usage:       14 bytes
   763 ;; Hardware stack levels used:    1
   764 ;; This function calls:
   765 ;;		Nothing
   766 ;; This function is called by:
   767 ;;		_main
   768 ;; This function uses a non-reentrant model
   769 ;;
   770                           
   771                           
   772                           ;psect for function ___xxtofl
   773  02D0                     ___xxtofl:
   774                           
   775                           ;incstack = 0
   776                           ; Regs used in ___xxtofl: [wreg+status,2+status,0]
   777                           ;___xxtofl@sign stored from wreg
   778  02D0  00F8               	movwf	___xxtofl@sign
   779  02D1                     l1524:
   780  02D1  0878               	movf	___xxtofl@sign,w
   781  02D2  1903               	btfsc	3,2
   782  02D3  2AD5               	goto	u1901
   783  02D4  2AD6               	goto	u1900
   784  02D5                     u1901:
   785  02D5  2AEA               	goto	l1530
   786  02D6                     u1900:
   787  02D6                     l1526:
   788  02D6  1FF3               	btfss	___xxtofl@val+3,7
   789  02D7  2AD9               	goto	u1911
   790  02D8  2ADA               	goto	u1910
   791  02D9                     u1911:
   792  02D9  2AEA               	goto	l1530
   793  02DA                     u1910:
   794  02DA                     l1528:
   795  02DA  0970               	comf	___xxtofl@val,w
   796  02DB  00FA               	movwf	___xxtofl@arg
   797  02DC  0971               	comf	___xxtofl@val+1,w
   798  02DD  00FB               	movwf	___xxtofl@arg+1
   799  02DE  0972               	comf	___xxtofl@val+2,w
   800  02DF  00FC               	movwf	___xxtofl@arg+2
   801  02E0  0973               	comf	___xxtofl@val+3,w
   802  02E1  00FD               	movwf	___xxtofl@arg+3
   803  02E2  0AFA               	incf	___xxtofl@arg,f
   804  02E3  1903               	skipnz
   805  02E4  0AFB               	incf	___xxtofl@arg+1,f
   806  02E5  1903               	skipnz
   807  02E6  0AFC               	incf	___xxtofl@arg+2,f
   808  02E7  1903               	skipnz
   809  02E8  0AFD               	incf	___xxtofl@arg+3,f
   810  02E9  2AF2               	goto	l587
   811  02EA                     l1530:
   812  02EA  0873               	movf	___xxtofl@val+3,w
   813  02EB  00FD               	movwf	___xxtofl@arg+3
   814  02EC  0872               	movf	___xxtofl@val+2,w
   815  02ED  00FC               	movwf	___xxtofl@arg+2
   816  02EE  0871               	movf	___xxtofl@val+1,w
   817  02EF  00FB               	movwf	___xxtofl@arg+1
   818  02F0  0870               	movf	___xxtofl@val,w
   819  02F1  00FA               	movwf	___xxtofl@arg
   820  02F2                     l587:
   821  02F2  0873               	movf	___xxtofl@val+3,w
   822  02F3  0472               	iorwf	___xxtofl@val+2,w
   823  02F4  0471               	iorwf	___xxtofl@val+1,w
   824  02F5  0470               	iorwf	___xxtofl@val,w
   825  02F6  1D03               	skipz
   826  02F7  2AF9               	goto	u1921
   827  02F8  2AFA               	goto	u1920
   828  02F9                     u1921:
   829  02F9  2B03               	goto	l1536
   830  02FA                     u1920:
   831  02FA                     l1532:
   832  02FA  3000               	movlw	0
   833  02FB  00F3               	movwf	?___xxtofl+3
   834  02FC  3000               	movlw	0
   835  02FD  00F2               	movwf	?___xxtofl+2
   836  02FE  3000               	movlw	0
   837  02FF  00F1               	movwf	?___xxtofl+1
   838  0300  3000               	movlw	0
   839  0301  00F0               	movwf	?___xxtofl
   840  0302  2B89               	goto	l589
   841  0303                     l1536:
   842  0303  3096               	movlw	150
   843  0304  00F4               	movwf	??___xxtofl
   844  0305  0874               	movf	??___xxtofl,w
   845  0306  00F9               	movwf	___xxtofl@exp
   846  0307  2B15               	goto	l1540
   847  0308                     l1538:
   848  0308  3001               	movlw	1
   849  0309  00F4               	movwf	??___xxtofl
   850  030A  0874               	movf	??___xxtofl,w
   851  030B  07F9               	addwf	___xxtofl@exp,f
   852  030C  3001               	movlw	1
   853  030D                     u1935:
   854  030D  1003               	clrc
   855  030E  0CFD               	rrf	___xxtofl@arg+3,f
   856  030F  0CFC               	rrf	___xxtofl@arg+2,f
   857  0310  0CFB               	rrf	___xxtofl@arg+1,f
   858  0311  0CFA               	rrf	___xxtofl@arg,f
   859  0312  3EFF               	addlw	-1
   860  0313  1D03               	skipz
   861  0314  2B0D               	goto	u1935
   862  0315                     l1540:
   863  0315  30FE               	movlw	254
   864  0316  057D               	andwf	___xxtofl@arg+3,w
   865  0317  1D03               	btfss	3,2
   866  0318  2B1A               	goto	u1941
   867  0319  2B1B               	goto	u1940
   868  031A                     u1941:
   869  031A  2B08               	goto	l1538
   870  031B                     u1940:
   871  031B  2B37               	goto	l593
   872  031C                     l1542:
   873  031C  3001               	movlw	1
   874  031D  00F4               	movwf	??___xxtofl
   875  031E  0874               	movf	??___xxtofl,w
   876  031F  07F9               	addwf	___xxtofl@exp,f
   877  0320                     l1544:
   878  0320  3001               	movlw	1
   879  0321  07FA               	addwf	___xxtofl@arg,f
   880  0322  3000               	movlw	0
   881  0323  1803               	skipnc
   882  0324  3001               	movlw	1
   883  0325  07FB               	addwf	___xxtofl@arg+1,f
   884  0326  3000               	movlw	0
   885  0327  1803               	skipnc
   886  0328  3001               	movlw	1
   887  0329  07FC               	addwf	___xxtofl@arg+2,f
   888  032A  3000               	movlw	0
   889  032B  1803               	skipnc
   890  032C  3001               	movlw	1
   891  032D  07FD               	addwf	___xxtofl@arg+3,f
   892  032E                     l1546:
   893  032E  3001               	movlw	1
   894  032F                     u1955:
   895  032F  1003               	clrc
   896  0330  0CFD               	rrf	___xxtofl@arg+3,f
   897  0331  0CFC               	rrf	___xxtofl@arg+2,f
   898  0332  0CFB               	rrf	___xxtofl@arg+1,f
   899  0333  0CFA               	rrf	___xxtofl@arg,f
   900  0334  3EFF               	addlw	-1
   901  0335  1D03               	skipz
   902  0336  2B2F               	goto	u1955
   903  0337                     l593:
   904  0337  30FF               	movlw	255
   905  0338  057D               	andwf	___xxtofl@arg+3,w
   906  0339  1D03               	btfss	3,2
   907  033A  2B3C               	goto	u1961
   908  033B  2B3D               	goto	u1960
   909  033C                     u1961:
   910  033C  2B1C               	goto	l1542
   911  033D                     u1960:
   912  033D  2B49               	goto	l1550
   913  033E                     l1548:
   914  033E  3001               	movlw	1
   915  033F  02F9               	subwf	___xxtofl@exp,f
   916  0340  3001               	movlw	1
   917  0341  00F4               	movwf	??___xxtofl
   918  0342                     u1975:
   919  0342  1003               	clrc
   920  0343  0DFA               	rlf	___xxtofl@arg,f
   921  0344  0DFB               	rlf	___xxtofl@arg+1,f
   922  0345  0DFC               	rlf	___xxtofl@arg+2,f
   923  0346  0DFD               	rlf	___xxtofl@arg+3,f
   924  0347  0BF4               	decfsz	??___xxtofl,f
   925  0348  2B42               	goto	u1975
   926  0349                     l1550:
   927  0349  1BFC               	btfsc	___xxtofl@arg+2,7
   928  034A  2B4C               	goto	u1981
   929  034B  2B4D               	goto	u1980
   930  034C                     u1981:
   931  034C  2B53               	goto	l600
   932  034D                     u1980:
   933  034D                     l1552:
   934  034D  3002               	movlw	2
   935  034E  0279               	subwf	___xxtofl@exp,w
   936  034F  1803               	skipnc
   937  0350  2B52               	goto	u1991
   938  0351  2B53               	goto	u1990
   939  0352                     u1991:
   940  0352  2B3E               	goto	l1548
   941  0353                     u1990:
   942  0353                     l600:
   943  0353  1879               	btfsc	___xxtofl@exp,0
   944  0354  2B56               	goto	u2001
   945  0355  2B57               	goto	u2000
   946  0356                     u2001:
   947  0356  2B5F               	goto	l601
   948  0357                     u2000:
   949  0357                     l1554:
   950  0357  30FF               	movlw	255
   951  0358  05FA               	andwf	___xxtofl@arg,f
   952  0359  30FF               	movlw	255
   953  035A  05FB               	andwf	___xxtofl@arg+1,f
   954  035B  307F               	movlw	127
   955  035C  05FC               	andwf	___xxtofl@arg+2,f
   956  035D  30FF               	movlw	255
   957  035E  05FD               	andwf	___xxtofl@arg+3,f
   958  035F                     l601:
   959  035F  1003               	clrc
   960  0360  0CF9               	rrf	___xxtofl@exp,f
   961  0361                     l1556:
   962  0361  0879               	movf	___xxtofl@exp,w
   963  0362  00F4               	movwf	??___xxtofl
   964  0363  01F5               	clrf	??___xxtofl+1
   965  0364  01F6               	clrf	??___xxtofl+2
   966  0365  01F7               	clrf	??___xxtofl+3
   967  0366  3018               	movlw	24
   968  0367                     u2015:
   969  0367  1003               	clrc
   970  0368  0DF4               	rlf	??___xxtofl,f
   971  0369  0DF5               	rlf	??___xxtofl+1,f
   972  036A  0DF6               	rlf	??___xxtofl+2,f
   973  036B  0DF7               	rlf	??___xxtofl+3,f
   974  036C                     u2010:
   975  036C  3EFF               	addlw	-1
   976  036D  1D03               	skipz
   977  036E  2B67               	goto	u2015
   978  036F  0874               	movf	??___xxtofl,w
   979  0370  04FA               	iorwf	___xxtofl@arg,f
   980  0371  0875               	movf	??___xxtofl+1,w
   981  0372  04FB               	iorwf	___xxtofl@arg+1,f
   982  0373  0876               	movf	??___xxtofl+2,w
   983  0374  04FC               	iorwf	___xxtofl@arg+2,f
   984  0375  0877               	movf	??___xxtofl+3,w
   985  0376  04FD               	iorwf	___xxtofl@arg+3,f
   986  0377                     l1558:
   987  0377  0878               	movf	___xxtofl@sign,w
   988  0378  1903               	btfsc	3,2
   989  0379  2B7B               	goto	u2021
   990  037A  2B7C               	goto	u2020
   991  037B                     u2021:
   992  037B  2B81               	goto	l1564
   993  037C                     u2020:
   994  037C                     l1560:
   995  037C  1FF3               	btfss	___xxtofl@val+3,7
   996  037D  2B7F               	goto	u2031
   997  037E  2B80               	goto	u2030
   998  037F                     u2031:
   999  037F  2B81               	goto	l1564
  1000  0380                     u2030:
  1001  0380                     l1562:
  1002  0380  17FD               	bsf	___xxtofl@arg+3,7
  1003  0381                     l1564:
  1004  0381  087D               	movf	___xxtofl@arg+3,w
  1005  0382  00F3               	movwf	?___xxtofl+3
  1006  0383  087C               	movf	___xxtofl@arg+2,w
  1007  0384  00F2               	movwf	?___xxtofl+2
  1008  0385  087B               	movf	___xxtofl@arg+1,w
  1009  0386  00F1               	movwf	?___xxtofl+1
  1010  0387  087A               	movf	___xxtofl@arg,w
  1011  0388  00F0               	movwf	?___xxtofl
  1012  0389                     l589:
  1013  0389  0008               	return
  1014  038A                     __end_of___xxtofl:
  1015                           
  1016                           	psect	text2
  1017  009E                     __ptext2:	
  1018 ;; *************** function _Led7_display *****************
  1019 ;; Defined at:
  1020 ;;		line 44 in file "led7.c"
  1021 ;; Parameters:    Size  Location     Type
  1022 ;;  num             4   42[BANK0 ] unsigned char 
  1023 ;; Auto vars:     Size  Location     Type
  1024 ;;		None
  1025 ;; Return value:  Size  Location     Type
  1026 ;;                  1    wreg      void 
  1027 ;; Registers used:
  1028 ;;		wreg, fsr0l, fsr0h, status,2, status,0, btemp+1, pclath, cstack
  1029 ;; Tracked objects:
  1030 ;;		On entry : 0/0
  1031 ;;		On exit  : 0/0
  1032 ;;		Unchanged: 0/0
  1033 ;; Data sizes:     COMMON   BANK0   BANK1   BANK3   BANK2
  1034 ;;      Params:         0       4       0       0       0
  1035 ;;      Locals:         0       0       0       0       0
  1036 ;;      Temps:          0       2       0       0       0
  1037 ;;      Totals:         0       6       0       0       0
  1038 ;;Total ram usage:        6 bytes
  1039 ;; Hardware stack levels used:    1
  1040 ;; Hardware stack levels required when called:    3
  1041 ;; This function calls:
  1042 ;;		_Led7_addFloatToBuffer
  1043 ;;		_Led7_displayUnit
  1044 ;; This function is called by:
  1045 ;;		_main
  1046 ;; This function uses a non-reentrant model
  1047 ;;
  1048                           
  1049                           
  1050                           ;psect for function _Led7_display
  1051  009E                     _Led7_display:
  1052  009E                     l1490:	
  1053                           ;incstack = 0
  1054                           ; Regs used in _Led7_display: [wreg-fsr0h+status,2+status,0+btemp+1+pclath+cstack]
  1055                           
  1056                           
  1057                           ;led7.c: 45:     Led7_addFloatToBuffer(num);
  1058  009E  1283               	bcf	3,5	;RP0=0, select bank0
  1059  009F  1303               	bcf	3,6	;RP1=0, select bank0
  1060  00A0  084D               	movf	Led7_display@num+3,w
  1061  00A1  00C3               	movwf	Led7_addFloatToBuffer@num+3
  1062  00A2  084C               	movf	Led7_display@num+2,w
  1063  00A3  00C2               	movwf	Led7_addFloatToBuffer@num+2
  1064  00A4  084B               	movf	Led7_display@num+1,w
  1065  00A5  00C1               	movwf	Led7_addFloatToBuffer@num+1
  1066  00A6  084A               	movf	Led7_display@num,w
  1067  00A7  00C0               	movwf	Led7_addFloatToBuffer@num
  1068  00A8  120A  118A  238A  120A  118A  	fcall	_Led7_addFloatToBuffer
  1069  00AD                     l1492:
  1070                           
  1071                           ;led7.c: 46:     Led7_displayUnit(buffer[0]);
  1072  00AD  1283               	bcf	3,5	;RP0=0, select bank0
  1073  00AE  1303               	bcf	3,6	;RP1=0, select bank0
  1074  00AF  0852               	movf	_buffer,w
  1075  00B0  120A  118A  2003  120A  118A  	fcall	_Led7_displayUnit
  1076  00B5                     l1494:
  1077                           
  1078                           ;led7.c: 47:     RD3 = 1;
  1079  00B5  1283               	bcf	3,5	;RP0=0, select bank0
  1080  00B6  1303               	bcf	3,6	;RP1=0, select bank0
  1081  00B7  1588               	bsf	8,3	;volatile
  1082  00B8                     l1496:
  1083                           
  1084                           ;led7.c: 48:     _delay((unsigned long)((1)*(8000000/4000.0)));
  1085  00B8  3003               	movlw	3
  1086  00B9  1283               	bcf	3,5	;RP0=0, select bank0
  1087  00BA  1303               	bcf	3,6	;RP1=0, select bank0
  1088  00BB  00CF               	movwf	??_Led7_display+1
  1089  00BC  3097               	movlw	151
  1090  00BD  00CE               	movwf	??_Led7_display
  1091  00BE                     u2057:
  1092  00BE  0BCE               	decfsz	??_Led7_display,f
  1093  00BF  28BE               	goto	u2057
  1094  00C0  0BCF               	decfsz	??_Led7_display+1,f
  1095  00C1  28BE               	goto	u2057
  1096  00C2                     l1498:
  1097                           
  1098                           ;led7.c: 49:     RD3 = 0;
  1099  00C2  1283               	bcf	3,5	;RP0=0, select bank0
  1100  00C3  1303               	bcf	3,6	;RP1=0, select bank0
  1101  00C4  1188               	bcf	8,3	;volatile
  1102  00C5                     l1500:
  1103                           
  1104                           ;led7.c: 51:     Led7_displayUnit(buffer[1]);
  1105  00C5  0853               	movf	_buffer+1,w
  1106  00C6  120A  118A  2003  120A  118A  	fcall	_Led7_displayUnit
  1107  00CB                     l1502:
  1108                           
  1109                           ;led7.c: 52:     RD2 = 1;
  1110  00CB  1283               	bcf	3,5	;RP0=0, select bank0
  1111  00CC  1303               	bcf	3,6	;RP1=0, select bank0
  1112  00CD  1508               	bsf	8,2	;volatile
  1113  00CE                     l1504:
  1114                           
  1115                           ;led7.c: 53:     _delay((unsigned long)((1)*(8000000/4000.0)));
  1116  00CE  3003               	movlw	3
  1117  00CF  1283               	bcf	3,5	;RP0=0, select bank0
  1118  00D0  1303               	bcf	3,6	;RP1=0, select bank0
  1119  00D1  00CF               	movwf	??_Led7_display+1
  1120  00D2  3097               	movlw	151
  1121  00D3  00CE               	movwf	??_Led7_display
  1122  00D4                     u2067:
  1123  00D4  0BCE               	decfsz	??_Led7_display,f
  1124  00D5  28D4               	goto	u2067
  1125  00D6  0BCF               	decfsz	??_Led7_display+1,f
  1126  00D7  28D4               	goto	u2067
  1127  00D8                     l1506:
  1128                           
  1129                           ;led7.c: 54:     RD2 = 0;
  1130  00D8  1283               	bcf	3,5	;RP0=0, select bank0
  1131  00D9  1303               	bcf	3,6	;RP1=0, select bank0
  1132  00DA  1108               	bcf	8,2	;volatile
  1133  00DB                     l1508:
  1134                           
  1135                           ;led7.c: 56:     Led7_displayUnit(buffer[2]);
  1136  00DB  0854               	movf	_buffer+2,w
  1137  00DC  120A  118A  2003  120A  118A  	fcall	_Led7_displayUnit
  1138  00E1                     l1510:
  1139                           
  1140                           ;led7.c: 57:     RD1 = 1;
  1141  00E1  1283               	bcf	3,5	;RP0=0, select bank0
  1142  00E2  1303               	bcf	3,6	;RP1=0, select bank0
  1143  00E3  1488               	bsf	8,1	;volatile
  1144  00E4                     l1512:
  1145                           
  1146                           ;led7.c: 58:     _delay((unsigned long)((1)*(8000000/4000.0)));
  1147  00E4  3003               	movlw	3
  1148  00E5  1283               	bcf	3,5	;RP0=0, select bank0
  1149  00E6  1303               	bcf	3,6	;RP1=0, select bank0
  1150  00E7  00CF               	movwf	??_Led7_display+1
  1151  00E8  3097               	movlw	151
  1152  00E9  00CE               	movwf	??_Led7_display
  1153  00EA                     u2077:
  1154  00EA  0BCE               	decfsz	??_Led7_display,f
  1155  00EB  28EA               	goto	u2077
  1156  00EC  0BCF               	decfsz	??_Led7_display+1,f
  1157  00ED  28EA               	goto	u2077
  1158  00EE                     l1514:
  1159                           
  1160                           ;led7.c: 59:     RD1 = 0;
  1161  00EE  1283               	bcf	3,5	;RP0=0, select bank0
  1162  00EF  1303               	bcf	3,6	;RP1=0, select bank0
  1163  00F0  1088               	bcf	8,1	;volatile
  1164  00F1                     l1516:
  1165                           
  1166                           ;led7.c: 61:     Led7_displayUnit(buffer[3]);
  1167  00F1  0855               	movf	_buffer+3,w
  1168  00F2  120A  118A  2003  120A  118A  	fcall	_Led7_displayUnit
  1169  00F7                     l1518:
  1170                           
  1171                           ;led7.c: 62:     RD0 = 1;
  1172  00F7  1283               	bcf	3,5	;RP0=0, select bank0
  1173  00F8  1303               	bcf	3,6	;RP1=0, select bank0
  1174  00F9  1408               	bsf	8,0	;volatile
  1175  00FA                     l1520:
  1176                           
  1177                           ;led7.c: 63:     _delay((unsigned long)((1)*(8000000/4000.0)));
  1178  00FA  3003               	movlw	3
  1179  00FB  1283               	bcf	3,5	;RP0=0, select bank0
  1180  00FC  1303               	bcf	3,6	;RP1=0, select bank0
  1181  00FD  00CF               	movwf	??_Led7_display+1
  1182  00FE  3097               	movlw	151
  1183  00FF  00CE               	movwf	??_Led7_display
  1184  0100                     u2087:
  1185  0100  0BCE               	decfsz	??_Led7_display,f
  1186  0101  2900               	goto	u2087
  1187  0102  0BCF               	decfsz	??_Led7_display+1,f
  1188  0103  2900               	goto	u2087
  1189  0104                     l1522:
  1190                           
  1191                           ;led7.c: 64:     RD0 = 0;
  1192  0104  1283               	bcf	3,5	;RP0=0, select bank0
  1193  0105  1303               	bcf	3,6	;RP1=0, select bank0
  1194  0106  1008               	bcf	8,0	;volatile
  1195  0107                     l68:
  1196  0107  0008               	return
  1197  0108                     __end_of_Led7_display:
  1198                           
  1199                           	psect	text3
  1200  0003                     __ptext3:	
  1201 ;; *************** function _Led7_displayUnit *****************
  1202 ;; Defined at:
  1203 ;;		line 22 in file "led7.c"
  1204 ;; Parameters:    Size  Location     Type
  1205 ;;  number          1    wreg     unsigned char 
  1206 ;; Auto vars:     Size  Location     Type
  1207 ;;  number          1    0[COMMON] unsigned char 
  1208 ;; Return value:  Size  Location     Type
  1209 ;;                  1    wreg      void 
  1210 ;; Registers used:
  1211 ;;		wreg, fsr0l, fsr0h, status,2, status,0, pclath
  1212 ;; Tracked objects:
  1213 ;;		On entry : 0/0
  1214 ;;		On exit  : 0/0
  1215 ;;		Unchanged: 0/0
  1216 ;; Data sizes:     COMMON   BANK0   BANK1   BANK3   BANK2
  1217 ;;      Params:         0       0       0       0       0
  1218 ;;      Locals:         1       0       0       0       0
  1219 ;;      Temps:          0       0       0       0       0
  1220 ;;      Totals:         1       0       0       0       0
  1221 ;;Total ram usage:        1 bytes
  1222 ;; Hardware stack levels used:    2
  1223 ;; This function calls:
  1224 ;;		Nothing
  1225 ;; This function is called by:
  1226 ;;		_Led7_display
  1227 ;; This function uses a non-reentrant model
  1228 ;;
  1229                           
  1230                           
  1231                           ;psect for function _Led7_displayUnit
  1232  0003                     _Led7_displayUnit:
  1233                           
  1234                           ;incstack = 0
  1235                           ; Regs used in _Led7_displayUnit: [wreg-fsr0h+status,2+status,0+pclath]
  1236                           ;Led7_displayUnit@number stored from wreg
  1237  0003  00F0               	movwf	Led7_displayUnit@number
  1238  0004                     l1454:
  1239                           
  1240                           ;led7.c: 23:     PORTB = LED7_HEX[number];
  1241  0004  0870               	movf	Led7_displayUnit@number,w
  1242  0005  3E01               	addlw	low ((_LED7_HEX-__stringbase)| (0+32768))
  1243  0006  0084               	movwf	4
  1244  0007  120A  158A  2000  120A  118A  	fcall	stringdir
  1245  000C  1283               	bcf	3,5	;RP0=0, select bank0
  1246  000D  1303               	bcf	3,6	;RP1=0, select bank0
  1247  000E  0086               	movwf	6	;volatile
  1248  000F                     l53:
  1249  000F  0008               	return
  1250  0010                     __end_of_Led7_displayUnit:
  1251                           
  1252                           	psect	text4
  1253  038A                     __ptext4:	
  1254 ;; *************** function _Led7_addFloatToBuffer *****************
  1255 ;; Defined at:
  1256 ;;		line 26 in file "led7.c"
  1257 ;; Parameters:    Size  Location     Type
  1258 ;;  num             4   32[BANK0 ] void 
  1259 ;; Auto vars:     Size  Location     Type
  1260 ;;  i               2   39[BANK0 ] int 
  1261 ;;  newNum          2   37[BANK0 ] int 
  1262 ;;  p               1   41[BANK0 ] unsigned char 
  1263 ;; Return value:  Size  Location     Type
  1264 ;;                  1    wreg      void 
  1265 ;; Registers used:
  1266 ;;		wreg, fsr0l, fsr0h, status,2, status,0, btemp+1, pclath, cstack
  1267 ;; Tracked objects:
  1268 ;;		On entry : 0/0
  1269 ;;		On exit  : 0/0
  1270 ;;		Unchanged: 0/0
  1271 ;; Data sizes:     COMMON   BANK0   BANK1   BANK3   BANK2
  1272 ;;      Params:         0       4       0       0       0
  1273 ;;      Locals:         0       5       0       0       0
  1274 ;;      Temps:          0       1       0       0       0
  1275 ;;      Totals:         0      10       0       0       0
  1276 ;;Total ram usage:       10 bytes
  1277 ;; Hardware stack levels used:    1
  1278 ;; Hardware stack levels required when called:    2
  1279 ;; This function calls:
  1280 ;;		_Led7_pointIndex
  1281 ;;		___awdiv
  1282 ;;		___awmod
  1283 ;;		___flmul
  1284 ;;		___fltol
  1285 ;; This function is called by:
  1286 ;;		_Led7_display
  1287 ;; This function uses a non-reentrant model
  1288 ;;
  1289                           
  1290                           
  1291                           ;psect for function _Led7_addFloatToBuffer
  1292  038A                     _Led7_addFloatToBuffer:
  1293  038A                     l1456:	
  1294                           ;incstack = 0
  1295                           ; Regs used in _Led7_addFloatToBuffer: [wreg-fsr0h+status,2+status,0+btemp+1+pclath+csta
      +                          ck]
  1296                           
  1297                           
  1298                           ;led7.c: 27:     int newNum;;led7.c: 28:     char p = Led7_pointIndex(num);
  1299  038A  1283               	bcf	3,5	;RP0=0, select bank0
  1300  038B  1303               	bcf	3,6	;RP1=0, select bank0
  1301  038C  0843               	movf	Led7_addFloatToBuffer@num+3,w
  1302  038D  00A3               	movwf	Led7_pointIndex@num+3
  1303  038E  0842               	movf	Led7_addFloatToBuffer@num+2,w
  1304  038F  00A2               	movwf	Led7_pointIndex@num+2
  1305  0390  0841               	movf	Led7_addFloatToBuffer@num+1,w
  1306  0391  00A1               	movwf	Led7_pointIndex@num+1
  1307  0392  0840               	movf	Led7_addFloatToBuffer@num,w
  1308  0393  00A0               	movwf	Led7_pointIndex@num
  1309  0394  120A  118A  2226  120A  118A  	fcall	_Led7_pointIndex
  1310  0399  1283               	bcf	3,5	;RP0=0, select bank0
  1311  039A  1303               	bcf	3,6	;RP1=0, select bank0
  1312  039B  00C4               	movwf	??_Led7_addFloatToBuffer
  1313  039C  0844               	movf	??_Led7_addFloatToBuffer,w
  1314  039D  00C9               	movwf	Led7_addFloatToBuffer@p
  1315  039E                     l1458:
  1316                           
  1317                           ;led7.c: 29:     if (p == 0)
  1318  039E  0849               	movf	Led7_addFloatToBuffer@p,w
  1319  039F  1D03               	btfss	3,2
  1320  03A0  2BA2               	goto	u1851
  1321  03A1  2BA3               	goto	u1850
  1322  03A2                     u1851:
  1323  03A2  2BB7               	goto	l1462
  1324  03A3                     u1850:
  1325  03A3                     l1460:
  1326                           
  1327                           ;led7.c: 30:         newNum = (int) num;
  1328  03A3  0843               	movf	Led7_addFloatToBuffer@num+3,w
  1329  03A4  00B8               	movwf	___fltol@f1+3
  1330  03A5  0842               	movf	Led7_addFloatToBuffer@num+2,w
  1331  03A6  00B7               	movwf	___fltol@f1+2
  1332  03A7  0841               	movf	Led7_addFloatToBuffer@num+1,w
  1333  03A8  00B6               	movwf	___fltol@f1+1
  1334  03A9  0840               	movf	Led7_addFloatToBuffer@num,w
  1335  03AA  00B5               	movwf	___fltol@f1
  1336  03AB  120A  118A  2108  120A  118A  	fcall	___fltol
  1337  03B0  1283               	bcf	3,5	;RP0=0, select bank0
  1338  03B1  1303               	bcf	3,6	;RP1=0, select bank0
  1339  03B2  0836               	movf	?___fltol+1,w
  1340  03B3  00C6               	movwf	Led7_addFloatToBuffer@newNum+1
  1341  03B4  0835               	movf	?___fltol,w
  1342  03B5  00C5               	movwf	Led7_addFloatToBuffer@newNum
  1343  03B6  2C49               	goto	l1474
  1344  03B7                     l1462:
  1345  03B7  0349               	decf	Led7_addFloatToBuffer@p,w
  1346  03B8  1D03               	btfss	3,2
  1347  03B9  2BBB               	goto	u1861
  1348  03BA  2BBC               	goto	u1860
  1349  03BB                     u1861:
  1350  03BB  2BE7               	goto	l1466
  1351  03BC                     u1860:
  1352  03BC                     l1464:
  1353                           
  1354                           ;led7.c: 32:         newNum = (int) (num * 10);
  1355  03BC  0843               	movf	Led7_addFloatToBuffer@num+3,w
  1356  03BD  00A7               	movwf	___flmul@a+3
  1357  03BE  0842               	movf	Led7_addFloatToBuffer@num+2,w
  1358  03BF  00A6               	movwf	___flmul@a+2
  1359  03C0  0841               	movf	Led7_addFloatToBuffer@num+1,w
  1360  03C1  00A5               	movwf	___flmul@a+1
  1361  03C2  0840               	movf	Led7_addFloatToBuffer@num,w
  1362  03C3  00A4               	movwf	___flmul@a
  1363  03C4  3041               	movlw	65
  1364  03C5  00A3               	movwf	___flmul@b+3
  1365  03C6  3020               	movlw	32
  1366  03C7  00A2               	movwf	___flmul@b+2
  1367  03C8  3000               	movlw	0
  1368  03C9  00A1               	movwf	___flmul@b+1
  1369  03CA  3000               	movlw	0
  1370  03CB  00A0               	movwf	___flmul@b
  1371  03CC  120A  118A  2495  120A  118A  	fcall	___flmul
  1372  03D1  1283               	bcf	3,5	;RP0=0, select bank0
  1373  03D2  1303               	bcf	3,6	;RP1=0, select bank0
  1374  03D3  0823               	movf	?___flmul+3,w
  1375  03D4  00B8               	movwf	___fltol@f1+3
  1376  03D5  0822               	movf	?___flmul+2,w
  1377  03D6  00B7               	movwf	___fltol@f1+2
  1378  03D7  0821               	movf	?___flmul+1,w
  1379  03D8  00B6               	movwf	___fltol@f1+1
  1380  03D9  0820               	movf	?___flmul,w
  1381  03DA  00B5               	movwf	___fltol@f1
  1382  03DB  120A  118A  2108  120A  118A  	fcall	___fltol
  1383  03E0  1283               	bcf	3,5	;RP0=0, select bank0
  1384  03E1  1303               	bcf	3,6	;RP1=0, select bank0
  1385  03E2  0836               	movf	?___fltol+1,w
  1386  03E3  00C6               	movwf	Led7_addFloatToBuffer@newNum+1
  1387  03E4  0835               	movf	?___fltol,w
  1388  03E5  00C5               	movwf	Led7_addFloatToBuffer@newNum
  1389  03E6  2C49               	goto	l1474
  1390  03E7                     l1466:
  1391  03E7  3002               	movlw	2
  1392  03E8  0649               	xorwf	Led7_addFloatToBuffer@p,w
  1393  03E9  1D03               	btfss	3,2
  1394  03EA  2BEC               	goto	u1871
  1395  03EB  2BED               	goto	u1870
  1396  03EC                     u1871:
  1397  03EC  2C18               	goto	l1470
  1398  03ED                     u1870:
  1399  03ED                     l1468:
  1400                           
  1401                           ;led7.c: 34:         newNum = (int) (num * 100);
  1402  03ED  0843               	movf	Led7_addFloatToBuffer@num+3,w
  1403  03EE  00A7               	movwf	___flmul@a+3
  1404  03EF  0842               	movf	Led7_addFloatToBuffer@num+2,w
  1405  03F0  00A6               	movwf	___flmul@a+2
  1406  03F1  0841               	movf	Led7_addFloatToBuffer@num+1,w
  1407  03F2  00A5               	movwf	___flmul@a+1
  1408  03F3  0840               	movf	Led7_addFloatToBuffer@num,w
  1409  03F4  00A4               	movwf	___flmul@a
  1410  03F5  3042               	movlw	66
  1411  03F6  00A3               	movwf	___flmul@b+3
  1412  03F7  30C8               	movlw	200
  1413  03F8  00A2               	movwf	___flmul@b+2
  1414  03F9  3000               	movlw	0
  1415  03FA  00A1               	movwf	___flmul@b+1
  1416  03FB  3000               	movlw	0
  1417  03FC  00A0               	movwf	___flmul@b
  1418  03FD  120A  118A  2495  120A  118A  	fcall	___flmul
  1419  0402  1283               	bcf	3,5	;RP0=0, select bank0
  1420  0403  1303               	bcf	3,6	;RP1=0, select bank0
  1421  0404  0823               	movf	?___flmul+3,w
  1422  0405  00B8               	movwf	___fltol@f1+3
  1423  0406  0822               	movf	?___flmul+2,w
  1424  0407  00B7               	movwf	___fltol@f1+2
  1425  0408  0821               	movf	?___flmul+1,w
  1426  0409  00B6               	movwf	___fltol@f1+1
  1427  040A  0820               	movf	?___flmul,w
  1428  040B  00B5               	movwf	___fltol@f1
  1429  040C  120A  118A  2108  120A  118A  	fcall	___fltol
  1430  0411  1283               	bcf	3,5	;RP0=0, select bank0
  1431  0412  1303               	bcf	3,6	;RP1=0, select bank0
  1432  0413  0836               	movf	?___fltol+1,w
  1433  0414  00C6               	movwf	Led7_addFloatToBuffer@newNum+1
  1434  0415  0835               	movf	?___fltol,w
  1435  0416  00C5               	movwf	Led7_addFloatToBuffer@newNum
  1436  0417  2C49               	goto	l1474
  1437  0418                     l1470:
  1438  0418  3003               	movlw	3
  1439  0419  0649               	xorwf	Led7_addFloatToBuffer@p,w
  1440  041A  1D03               	btfss	3,2
  1441  041B  2C1D               	goto	u1881
  1442  041C  2C1E               	goto	u1880
  1443  041D                     u1881:
  1444  041D  2C49               	goto	l59
  1445  041E                     u1880:
  1446  041E                     l1472:
  1447                           
  1448                           ;led7.c: 36:         newNum = (int) (num * 1000);
  1449  041E  0843               	movf	Led7_addFloatToBuffer@num+3,w
  1450  041F  00A7               	movwf	___flmul@a+3
  1451  0420  0842               	movf	Led7_addFloatToBuffer@num+2,w
  1452  0421  00A6               	movwf	___flmul@a+2
  1453  0422  0841               	movf	Led7_addFloatToBuffer@num+1,w
  1454  0423  00A5               	movwf	___flmul@a+1
  1455  0424  0840               	movf	Led7_addFloatToBuffer@num,w
  1456  0425  00A4               	movwf	___flmul@a
  1457  0426  3044               	movlw	68
  1458  0427  00A3               	movwf	___flmul@b+3
  1459  0428  307A               	movlw	122
  1460  0429  00A2               	movwf	___flmul@b+2
  1461  042A  3000               	movlw	0
  1462  042B  00A1               	movwf	___flmul@b+1
  1463  042C  3000               	movlw	0
  1464  042D  00A0               	movwf	___flmul@b
  1465  042E  120A  118A  2495  120A  118A  	fcall	___flmul
  1466  0433  1283               	bcf	3,5	;RP0=0, select bank0
  1467  0434  1303               	bcf	3,6	;RP1=0, select bank0
  1468  0435  0823               	movf	?___flmul+3,w
  1469  0436  00B8               	movwf	___fltol@f1+3
  1470  0437  0822               	movf	?___flmul+2,w
  1471  0438  00B7               	movwf	___fltol@f1+2
  1472  0439  0821               	movf	?___flmul+1,w
  1473  043A  00B6               	movwf	___fltol@f1+1
  1474  043B  0820               	movf	?___flmul,w
  1475  043C  00B5               	movwf	___fltol@f1
  1476  043D  120A  118A  2108  120A  118A  	fcall	___fltol
  1477  0442  1283               	bcf	3,5	;RP0=0, select bank0
  1478  0443  1303               	bcf	3,6	;RP1=0, select bank0
  1479  0444  0836               	movf	?___fltol+1,w
  1480  0445  00C6               	movwf	Led7_addFloatToBuffer@newNum+1
  1481  0446  0835               	movf	?___fltol,w
  1482  0447  00C5               	movwf	Led7_addFloatToBuffer@newNum
  1483  0448  2C49               	goto	l1474
  1484  0449                     l59:
  1485  0449                     l1474:
  1486                           
  1487                           ;led7.c: 37:     for (int i = 0; i < 4; i++) {
  1488  0449  01C7               	clrf	Led7_addFloatToBuffer@i
  1489  044A  01C8               	clrf	Led7_addFloatToBuffer@i+1
  1490  044B                     l1480:
  1491                           
  1492                           ;led7.c: 38:         buffer[i] = newNum % 10;
  1493  044B  300A               	movlw	10
  1494  044C  00F0               	movwf	___awmod@divisor
  1495  044D  3000               	movlw	0
  1496  044E  00F1               	movwf	___awmod@divisor+1
  1497  044F  1283               	bcf	3,5	;RP0=0, select bank0
  1498  0450  1303               	bcf	3,6	;RP1=0, select bank0
  1499  0451  0846               	movf	Led7_addFloatToBuffer@newNum+1,w
  1500  0452  00F3               	movwf	___awmod@dividend+1
  1501  0453  0845               	movf	Led7_addFloatToBuffer@newNum,w
  1502  0454  00F2               	movwf	___awmod@dividend
  1503  0455  120A  158A  27A7  120A  118A  	fcall	___awmod
  1504  045A  0870               	movf	?___awmod,w
  1505  045B  1283               	bcf	3,5	;RP0=0, select bank0
  1506  045C  1303               	bcf	3,6	;RP1=0, select bank0
  1507  045D  00C4               	movwf	??_Led7_addFloatToBuffer
  1508  045E  0847               	movf	Led7_addFloatToBuffer@i,w
  1509  045F  3E52               	addlw	(low (_buffer| 0))& (0+255)
  1510  0460  0084               	movwf	4
  1511  0461  0844               	movf	??_Led7_addFloatToBuffer,w
  1512  0462  1383               	bcf	3,7	;select IRP bank0
  1513  0463  0080               	movwf	0
  1514  0464                     l1482:
  1515                           
  1516                           ;led7.c: 39:         newNum /= 10;
  1517  0464  300A               	movlw	10
  1518  0465  00F0               	movwf	___awdiv@divisor
  1519  0466  3000               	movlw	0
  1520  0467  00F1               	movwf	___awdiv@divisor+1
  1521  0468  0846               	movf	Led7_addFloatToBuffer@newNum+1,w
  1522  0469  00F3               	movwf	___awdiv@dividend+1
  1523  046A  0845               	movf	Led7_addFloatToBuffer@newNum,w
  1524  046B  00F2               	movwf	___awdiv@dividend
  1525  046C  120A  118A  2037  120A  118A  	fcall	___awdiv
  1526  0471  0871               	movf	?___awdiv+1,w
  1527  0472  1283               	bcf	3,5	;RP0=0, select bank0
  1528  0473  1303               	bcf	3,6	;RP1=0, select bank0
  1529  0474  00C6               	movwf	Led7_addFloatToBuffer@newNum+1
  1530  0475  0870               	movf	?___awdiv,w
  1531  0476  00C5               	movwf	Led7_addFloatToBuffer@newNum
  1532  0477                     l1484:
  1533                           
  1534                           ;led7.c: 40:     }
  1535  0477  3001               	movlw	1
  1536  0478  07C7               	addwf	Led7_addFloatToBuffer@i,f
  1537  0479  1803               	skipnc
  1538  047A  0AC8               	incf	Led7_addFloatToBuffer@i+1,f
  1539  047B  3000               	movlw	0
  1540  047C  07C8               	addwf	Led7_addFloatToBuffer@i+1,f
  1541  047D                     l1486:
  1542  047D  0848               	movf	Led7_addFloatToBuffer@i+1,w
  1543  047E  3A80               	xorlw	128
  1544  047F  00FF               	movwf	btemp+1
  1545  0480  3080               	movlw	128
  1546  0481  027F               	subwf	btemp+1,w
  1547  0482  1D03               	skipz
  1548  0483  2C86               	goto	u1895
  1549  0484  3004               	movlw	4
  1550  0485  0247               	subwf	Led7_addFloatToBuffer@i,w
  1551  0486                     u1895:
  1552  0486  1C03               	skipc
  1553  0487  2C89               	goto	u1891
  1554  0488  2C8A               	goto	u1890
  1555  0489                     u1891:
  1556  0489  2C4B               	goto	l1480
  1557  048A                     u1890:
  1558  048A                     l1488:
  1559                           
  1560                           ;led7.c: 41:     buffer[p] += 10;
  1561  048A  300A               	movlw	10
  1562  048B  1283               	bcf	3,5	;RP0=0, select bank0
  1563  048C  1303               	bcf	3,6	;RP1=0, select bank0
  1564  048D  00C4               	movwf	??_Led7_addFloatToBuffer
  1565  048E  0849               	movf	Led7_addFloatToBuffer@p,w
  1566  048F  3E52               	addlw	(low (_buffer| 0))& (0+255)
  1567  0490  0084               	movwf	4
  1568  0491  0844               	movf	??_Led7_addFloatToBuffer,w
  1569  0492  1383               	bcf	3,7	;select IRP bank0
  1570  0493  0780               	addwf	0,f
  1571  0494                     l65:
  1572  0494  0008               	return
  1573  0495                     __end_of_Led7_addFloatToBuffer:
  1574                           
  1575                           	psect	text5
  1576  0108                     __ptext5:	
  1577 ;; *************** function ___fltol *****************
  1578 ;; Defined at:
  1579 ;;		line 43 in file "C:\Program Files\Microchip\xc8\v2.31\pic\sources\c90\common\fltol.c"
  1580 ;; Parameters:    Size  Location     Type
  1581 ;;  f1              4   21[BANK0 ] void 
  1582 ;; Auto vars:     Size  Location     Type
  1583 ;;  exp1            1   31[BANK0 ] unsigned char 
  1584 ;;  sign1           1   30[BANK0 ] unsigned char 
  1585 ;; Return value:  Size  Location     Type
  1586 ;;                  4   21[BANK0 ] long 
  1587 ;; Registers used:
  1588 ;;		wreg, status,2, status,0
  1589 ;; Tracked objects:
  1590 ;;		On entry : 0/0
  1591 ;;		On exit  : 0/0
  1592 ;;		Unchanged: 0/0
  1593 ;; Data sizes:     COMMON   BANK0   BANK1   BANK3   BANK2
  1594 ;;      Params:         0       4       0       0       0
  1595 ;;      Locals:         0       2       0       0       0
  1596 ;;      Temps:          0       5       0       0       0
  1597 ;;      Totals:         0      11       0       0       0
  1598 ;;Total ram usage:       11 bytes
  1599 ;; Hardware stack levels used:    1
  1600 ;; This function calls:
  1601 ;;		Nothing
  1602 ;; This function is called by:
  1603 ;;		_Led7_addFloatToBuffer
  1604 ;; This function uses a non-reentrant model
  1605 ;;
  1606                           
  1607                           
  1608                           ;psect for function ___fltol
  1609  0108                     ___fltol:
  1610  0108                     l1278:	
  1611                           ;incstack = 0
  1612                           ; Regs used in ___fltol: [wreg+status,2+status,0]
  1613                           
  1614  0108  1003               	clrc
  1615  0109  1283               	bcf	3,5	;RP0=0, select bank0
  1616  010A  1303               	bcf	3,6	;RP1=0, select bank0
  1617  010B  0D37               	rlf	___fltol@f1+2,w
  1618  010C  0D38               	rlf	___fltol@f1+3,w
  1619  010D  00B9               	movwf	??___fltol
  1620  010E  0839               	movf	??___fltol,w
  1621  010F  00BF               	movwf	___fltol@exp1
  1622  0110  083F               	movf	___fltol@exp1,w
  1623  0111  1D03               	btfss	3,2
  1624  0112  2914               	goto	u1381
  1625  0113  2915               	goto	u1380
  1626  0114                     u1381:
  1627  0114  291E               	goto	l1284
  1628  0115                     u1380:
  1629  0115                     l1280:
  1630  0115  3000               	movlw	0
  1631  0116  00B8               	movwf	?___fltol+3
  1632  0117  3000               	movlw	0
  1633  0118  00B7               	movwf	?___fltol+2
  1634  0119  3000               	movlw	0
  1635  011A  00B6               	movwf	?___fltol+1
  1636  011B  3000               	movlw	0
  1637  011C  00B5               	movwf	?___fltol
  1638  011D  2983               	goto	l340
  1639  011E                     l1284:
  1640  011E  0835               	movf	___fltol@f1,w
  1641  011F  00B9               	movwf	??___fltol
  1642  0120  0836               	movf	___fltol@f1+1,w
  1643  0121  00BA               	movwf	??___fltol+1
  1644  0122  0837               	movf	___fltol@f1+2,w
  1645  0123  00BB               	movwf	??___fltol+2
  1646  0124  0838               	movf	___fltol@f1+3,w
  1647  0125  00BC               	movwf	??___fltol+3
  1648  0126  301F               	movlw	31
  1649  0127                     u1395:
  1650  0127  1003               	clrc
  1651  0128  0CBC               	rrf	??___fltol+3,f
  1652  0129  0CBB               	rrf	??___fltol+2,f
  1653  012A  0CBA               	rrf	??___fltol+1,f
  1654  012B  0CB9               	rrf	??___fltol,f
  1655  012C                     u1390:
  1656  012C  3EFF               	addlw	-1
  1657  012D  1D03               	skipz
  1658  012E  2927               	goto	u1395
  1659  012F  0839               	movf	??___fltol,w
  1660  0130  00BD               	movwf	??___fltol+4
  1661  0131  083D               	movf	??___fltol+4,w
  1662  0132  00BE               	movwf	___fltol@sign1
  1663  0133                     l1286:
  1664  0133  17B7               	bsf	___fltol@f1+2,7
  1665  0134                     l1288:
  1666  0134  30FF               	movlw	255
  1667  0135  05B5               	andwf	___fltol@f1,f
  1668  0136  30FF               	movlw	255
  1669  0137  05B6               	andwf	___fltol@f1+1,f
  1670  0138  30FF               	movlw	255
  1671  0139  05B7               	andwf	___fltol@f1+2,f
  1672  013A  3000               	movlw	0
  1673  013B  05B8               	andwf	___fltol@f1+3,f
  1674  013C                     l1290:
  1675  013C  3096               	movlw	150
  1676  013D  02BF               	subwf	___fltol@exp1,f
  1677  013E                     l1292:
  1678  013E  1FBF               	btfss	___fltol@exp1,7
  1679  013F  2941               	goto	u1401
  1680  0140  2942               	goto	u1400
  1681  0141                     u1401:
  1682  0141  295C               	goto	l1302
  1683  0142                     u1400:
  1684  0142                     l1294:
  1685  0142  083F               	movf	___fltol@exp1,w
  1686  0143  3A80               	xorlw	128
  1687  0144  3E97               	addlw	151
  1688  0145  1803               	skipnc
  1689  0146  2948               	goto	u1411
  1690  0147  2949               	goto	u1410
  1691  0148                     u1411:
  1692  0148  294A               	goto	l1300
  1693  0149                     u1410:
  1694  0149  2915               	goto	l1280
  1695  014A                     l1300:
  1696  014A  3001               	movlw	1
  1697  014B                     u1425:
  1698  014B  1003               	clrc
  1699  014C  0CB8               	rrf	___fltol@f1+3,f
  1700  014D  0CB7               	rrf	___fltol@f1+2,f
  1701  014E  0CB6               	rrf	___fltol@f1+1,f
  1702  014F  0CB5               	rrf	___fltol@f1,f
  1703  0150  3EFF               	addlw	-1
  1704  0151  1D03               	skipz
  1705  0152  294B               	goto	u1425
  1706  0153  3001               	movlw	1
  1707  0154  00B9               	movwf	??___fltol
  1708  0155  0839               	movf	??___fltol,w
  1709  0156  07BF               	addwf	___fltol@exp1,f
  1710  0157  1D03               	btfss	3,2
  1711  0158  295A               	goto	u1431
  1712  0159  295B               	goto	u1430
  1713  015A                     u1431:
  1714  015A  294A               	goto	l1300
  1715  015B                     u1430:
  1716  015B  2973               	goto	l1310
  1717  015C                     l1302:
  1718  015C  3020               	movlw	32
  1719  015D  023F               	subwf	___fltol@exp1,w
  1720  015E  1C03               	skipc
  1721  015F  2961               	goto	u1441
  1722  0160  2962               	goto	u1440
  1723  0161                     u1441:
  1724  0161  296E               	goto	l347
  1725  0162                     u1440:
  1726  0162  2915               	goto	l1280
  1727  0163                     l1308:
  1728  0163  3001               	movlw	1
  1729  0164  00B9               	movwf	??___fltol
  1730  0165                     u1455:
  1731  0165  1003               	clrc
  1732  0166  0DB5               	rlf	___fltol@f1,f
  1733  0167  0DB6               	rlf	___fltol@f1+1,f
  1734  0168  0DB7               	rlf	___fltol@f1+2,f
  1735  0169  0DB8               	rlf	___fltol@f1+3,f
  1736  016A  0BB9               	decfsz	??___fltol,f
  1737  016B  2965               	goto	u1455
  1738  016C  3001               	movlw	1
  1739  016D  02BF               	subwf	___fltol@exp1,f
  1740  016E                     l347:
  1741  016E  083F               	movf	___fltol@exp1,w
  1742  016F  1D03               	btfss	3,2
  1743  0170  2972               	goto	u1461
  1744  0171  2973               	goto	u1460
  1745  0172                     u1461:
  1746  0172  2963               	goto	l1308
  1747  0173                     u1460:
  1748  0173                     l1310:
  1749  0173  083E               	movf	___fltol@sign1,w
  1750  0174  1903               	btfsc	3,2
  1751  0175  2977               	goto	u1471
  1752  0176  2978               	goto	u1470
  1753  0177                     u1471:
  1754  0177  2983               	goto	l350
  1755  0178                     u1470:
  1756  0178                     l1312:
  1757  0178  09B5               	comf	___fltol@f1,f
  1758  0179  09B6               	comf	___fltol@f1+1,f
  1759  017A  09B7               	comf	___fltol@f1+2,f
  1760  017B  09B8               	comf	___fltol@f1+3,f
  1761  017C  0AB5               	incf	___fltol@f1,f
  1762  017D  1903               	skipnz
  1763  017E  0AB6               	incf	___fltol@f1+1,f
  1764  017F  1903               	skipnz
  1765  0180  0AB7               	incf	___fltol@f1+2,f
  1766  0181  1903               	skipnz
  1767  0182  0AB8               	incf	___fltol@f1+3,f
  1768  0183                     l350:
  1769  0183                     l340:
  1770  0183  0008               	return
  1771  0184                     __end_of___fltol:
  1772                           
  1773                           	psect	text6
  1774  0495                     __ptext6:	
  1775 ;; *************** function ___flmul *****************
  1776 ;; Defined at:
  1777 ;;		line 8 in file "C:\Program Files\Microchip\xc8\v2.31\pic\sources\c90\common\sprcmul.c"
  1778 ;; Parameters:    Size  Location     Type
  1779 ;;  b               4    0[BANK0 ] long 
  1780 ;;  a               4    4[BANK0 ] long 
  1781 ;; Auto vars:     Size  Location     Type
  1782 ;;  prod            4   15[BANK0 ] struct .
  1783 ;;  grs             4    9[BANK0 ] unsigned long 
  1784 ;;  temp            2   19[BANK0 ] struct .
  1785 ;;  bexp            1   14[BANK0 ] unsigned char 
  1786 ;;  aexp            1   13[BANK0 ] unsigned char 
  1787 ;;  sign            1    8[BANK0 ] unsigned char 
  1788 ;; Return value:  Size  Location     Type
  1789 ;;                  4    0[BANK0 ] unsigned char 
  1790 ;; Registers used:
  1791 ;;		wreg, status,2, status,0, btemp+1, pclath, cstack
  1792 ;; Tracked objects:
  1793 ;;		On entry : 0/0
  1794 ;;		On exit  : 0/0
  1795 ;;		Unchanged: 0/0
  1796 ;; Data sizes:     COMMON   BANK0   BANK1   BANK3   BANK2
  1797 ;;      Params:         0       8       0       0       0
  1798 ;;      Locals:         0      13       0       0       0
  1799 ;;      Temps:          5       0       0       0       0
  1800 ;;      Totals:         5      21       0       0       0
  1801 ;;Total ram usage:       26 bytes
  1802 ;; Hardware stack levels used:    1
  1803 ;; Hardware stack levels required when called:    1
  1804 ;; This function calls:
  1805 ;;		__Umul8_16
  1806 ;; This function is called by:
  1807 ;;		_Led7_addFloatToBuffer
  1808 ;; This function uses a non-reentrant model
  1809 ;;
  1810                           
  1811                           
  1812                           ;psect for function ___flmul
  1813  0495                     ___flmul:
  1814  0495                     l1314:	
  1815                           ;incstack = 0
  1816                           ; Regs used in ___flmul: [wreg+status,2+status,0+btemp+1+pclath+cstack]
  1817                           
  1818  0495  1283               	bcf	3,5	;RP0=0, select bank0
  1819  0496  1303               	bcf	3,6	;RP1=0, select bank0
  1820  0497  0823               	movf	___flmul@b+3,w
  1821  0498  3980               	andlw	128
  1822  0499  00F9               	movwf	??___flmul
  1823  049A  0879               	movf	??___flmul,w
  1824  049B  00A8               	movwf	___flmul@sign
  1825  049C                     l1316:
  1826  049C  0823               	movf	___flmul@b+3,w
  1827  049D  00F9               	movwf	??___flmul
  1828  049E  0779               	addwf	??___flmul,w
  1829  049F  00FA               	movwf	??___flmul+1
  1830  04A0  087A               	movf	??___flmul+1,w
  1831  04A1  00AE               	movwf	___flmul@bexp
  1832  04A2                     l1318:
  1833  04A2  1FA2               	btfss	___flmul@b+2,7
  1834  04A3  2CA5               	goto	u1481
  1835  04A4  2CA6               	goto	u1480
  1836  04A5                     u1481:
  1837  04A5  2CA7               	goto	l1322
  1838  04A6                     u1480:
  1839  04A6                     l1320:
  1840  04A6  142E               	bsf	___flmul@bexp,0
  1841  04A7                     l1322:
  1842  04A7  082E               	movf	___flmul@bexp,w
  1843  04A8  1903               	btfsc	3,2
  1844  04A9  2CAB               	goto	u1491
  1845  04AA  2CAC               	goto	u1490
  1846  04AB                     u1491:
  1847  04AB  2CBB               	goto	l1330
  1848  04AC                     u1490:
  1849  04AC                     l1324:
  1850  04AC  0A2E               	incf	___flmul@bexp,w
  1851  04AD  1D03               	btfss	3,2
  1852  04AE  2CB0               	goto	u1501
  1853  04AF  2CB1               	goto	u1500
  1854  04B0                     u1501:
  1855  04B0  2CB9               	goto	l1328
  1856  04B1                     u1500:
  1857  04B1                     l1326:
  1858  04B1  3000               	movlw	0
  1859  04B2  00A3               	movwf	___flmul@b+3
  1860  04B3  3000               	movlw	0
  1861  04B4  00A2               	movwf	___flmul@b+2
  1862  04B5  3000               	movlw	0
  1863  04B6  00A1               	movwf	___flmul@b+1
  1864  04B7  3000               	movlw	0
  1865  04B8  00A0               	movwf	___flmul@b
  1866  04B9                     l1328:
  1867  04B9  17A2               	bsf	___flmul@b+2,7
  1868  04BA  2CC3               	goto	l1332
  1869  04BB                     l1330:
  1870  04BB  3000               	movlw	0
  1871  04BC  00A3               	movwf	___flmul@b+3
  1872  04BD  3000               	movlw	0
  1873  04BE  00A2               	movwf	___flmul@b+2
  1874  04BF  3000               	movlw	0
  1875  04C0  00A1               	movwf	___flmul@b+1
  1876  04C1  3000               	movlw	0
  1877  04C2  00A0               	movwf	___flmul@b
  1878  04C3                     l1332:
  1879  04C3  0827               	movf	___flmul@a+3,w
  1880  04C4  3980               	andlw	128
  1881  04C5  00F9               	movwf	??___flmul
  1882  04C6  0879               	movf	??___flmul,w
  1883  04C7  06A8               	xorwf	___flmul@sign,f
  1884  04C8                     l1334:
  1885  04C8  0827               	movf	___flmul@a+3,w
  1886  04C9  00F9               	movwf	??___flmul
  1887  04CA  0779               	addwf	??___flmul,w
  1888  04CB  00FA               	movwf	??___flmul+1
  1889  04CC  087A               	movf	??___flmul+1,w
  1890  04CD  00AD               	movwf	___flmul@aexp
  1891  04CE                     l1336:
  1892  04CE  1FA6               	btfss	___flmul@a+2,7
  1893  04CF  2CD1               	goto	u1511
  1894  04D0  2CD2               	goto	u1510
  1895  04D1                     u1511:
  1896  04D1  2CD3               	goto	l1340
  1897  04D2                     u1510:
  1898  04D2                     l1338:
  1899  04D2  142D               	bsf	___flmul@aexp,0
  1900  04D3                     l1340:
  1901  04D3  082D               	movf	___flmul@aexp,w
  1902  04D4  1903               	btfsc	3,2
  1903  04D5  2CD7               	goto	u1521
  1904  04D6  2CD8               	goto	u1520
  1905  04D7                     u1521:
  1906  04D7  2CE7               	goto	l1348
  1907  04D8                     u1520:
  1908  04D8                     l1342:
  1909  04D8  0A2D               	incf	___flmul@aexp,w
  1910  04D9  1D03               	btfss	3,2
  1911  04DA  2CDC               	goto	u1531
  1912  04DB  2CDD               	goto	u1530
  1913  04DC                     u1531:
  1914  04DC  2CE5               	goto	l1346
  1915  04DD                     u1530:
  1916  04DD                     l1344:
  1917  04DD  3000               	movlw	0
  1918  04DE  00A7               	movwf	___flmul@a+3
  1919  04DF  3000               	movlw	0
  1920  04E0  00A6               	movwf	___flmul@a+2
  1921  04E1  3000               	movlw	0
  1922  04E2  00A5               	movwf	___flmul@a+1
  1923  04E3  3000               	movlw	0
  1924  04E4  00A4               	movwf	___flmul@a
  1925  04E5                     l1346:
  1926  04E5  17A6               	bsf	___flmul@a+2,7
  1927  04E6  2CEF               	goto	l1350
  1928  04E7                     l1348:
  1929  04E7  3000               	movlw	0
  1930  04E8  00A7               	movwf	___flmul@a+3
  1931  04E9  3000               	movlw	0
  1932  04EA  00A6               	movwf	___flmul@a+2
  1933  04EB  3000               	movlw	0
  1934  04EC  00A5               	movwf	___flmul@a+1
  1935  04ED  3000               	movlw	0
  1936  04EE  00A4               	movwf	___flmul@a
  1937  04EF                     l1350:
  1938  04EF  082D               	movf	___flmul@aexp,w
  1939  04F0  1903               	btfsc	3,2
  1940  04F1  2CF3               	goto	u1541
  1941  04F2  2CF4               	goto	u1540
  1942  04F3                     u1541:
  1943  04F3  2CF9               	goto	l1354
  1944  04F4                     u1540:
  1945  04F4                     l1352:
  1946  04F4  082E               	movf	___flmul@bexp,w
  1947  04F5  1D03               	btfss	3,2
  1948  04F6  2CF8               	goto	u1551
  1949  04F7  2CF9               	goto	u1550
  1950  04F8                     u1551:
  1951  04F8  2D02               	goto	l1358
  1952  04F9                     u1550:
  1953  04F9                     l1354:
  1954  04F9  3000               	movlw	0
  1955  04FA  00A3               	movwf	?___flmul+3
  1956  04FB  3000               	movlw	0
  1957  04FC  00A2               	movwf	?___flmul+2
  1958  04FD  3000               	movlw	0
  1959  04FE  00A1               	movwf	?___flmul+1
  1960  04FF  3000               	movlw	0
  1961  0500  00A0               	movwf	?___flmul
  1962  0501  2FF5               	goto	l543
  1963  0502                     l1358:
  1964  0502  0820               	movf	___flmul@b,w
  1965  0503  00F9               	movwf	??___flmul
  1966  0504  0879               	movf	??___flmul,w
  1967  0505  00F0               	movwf	__Umul8_16@multiplicand
  1968  0506  0826               	movf	___flmul@a+2,w
  1969  0507  120A  118A  2010  120A  118A  	fcall	__Umul8_16
  1970  050C  0871               	movf	?__Umul8_16+1,w
  1971  050D  1283               	bcf	3,5	;RP0=0, select bank0
  1972  050E  1303               	bcf	3,6	;RP1=0, select bank0
  1973  050F  00B4               	movwf	___flmul@temp+1
  1974  0510  0870               	movf	?__Umul8_16,w
  1975  0511  00B3               	movwf	___flmul@temp
  1976  0512                     l1360:
  1977  0512  0833               	movf	___flmul@temp,w
  1978  0513  00F9               	movwf	??___flmul
  1979  0514  01FA               	clrf	??___flmul+1
  1980  0515  01FB               	clrf	??___flmul+2
  1981  0516  01FC               	clrf	??___flmul+3
  1982  0517  087C               	movf	??___flmul+3,w
  1983  0518  00AC               	movwf	___flmul@grs+3
  1984  0519  087B               	movf	??___flmul+2,w
  1985  051A  00AB               	movwf	___flmul@grs+2
  1986  051B  087A               	movf	??___flmul+1,w
  1987  051C  00AA               	movwf	___flmul@grs+1
  1988  051D  0879               	movf	??___flmul,w
  1989  051E  00A9               	movwf	___flmul@grs
  1990  051F                     l1362:
  1991  051F  0834               	movf	___flmul@temp+1,w
  1992  0520  00F9               	movwf	??___flmul
  1993  0521  01FA               	clrf	??___flmul+1
  1994  0522  01FB               	clrf	??___flmul+2
  1995  0523  01FC               	clrf	??___flmul+3
  1996  0524  087C               	movf	??___flmul+3,w
  1997  0525  00B2               	movwf	___flmul@prod+3
  1998  0526  087B               	movf	??___flmul+2,w
  1999  0527  00B1               	movwf	___flmul@prod+2
  2000  0528  087A               	movf	??___flmul+1,w
  2001  0529  00B0               	movwf	___flmul@prod+1
  2002  052A  0879               	movf	??___flmul,w
  2003  052B  00AF               	movwf	___flmul@prod
  2004  052C  0821               	movf	___flmul@b+1,w
  2005  052D  00F9               	movwf	??___flmul
  2006  052E  0879               	movf	??___flmul,w
  2007  052F  00F0               	movwf	__Umul8_16@multiplicand
  2008  0530  0825               	movf	___flmul@a+1,w
  2009  0531  120A  118A  2010  120A  118A  	fcall	__Umul8_16
  2010  0536  0871               	movf	?__Umul8_16+1,w
  2011  0537  1283               	bcf	3,5	;RP0=0, select bank0
  2012  0538  1303               	bcf	3,6	;RP1=0, select bank0
  2013  0539  00B4               	movwf	___flmul@temp+1
  2014  053A  0870               	movf	?__Umul8_16,w
  2015  053B  00B3               	movwf	___flmul@temp
  2016  053C                     l1364:
  2017  053C  0833               	movf	___flmul@temp,w
  2018  053D  00F9               	movwf	??___flmul
  2019  053E  01FA               	clrf	??___flmul+1
  2020  053F  01FB               	clrf	??___flmul+2
  2021  0540  01FC               	clrf	??___flmul+3
  2022  0541  0879               	movf	??___flmul,w
  2023  0542  07A9               	addwf	___flmul@grs,f
  2024  0543  087A               	movf	??___flmul+1,w
  2025  0544  1103               	clrz
  2026  0545  1803               	skipnc
  2027  0546  3E01               	addlw	1
  2028  0547  1903               	skipnz
  2029  0548  2D4A               	goto	u1561
  2030  0549  07AA               	addwf	___flmul@grs+1,f
  2031  054A                     u1561:
  2032  054A  087B               	movf	??___flmul+2,w
  2033  054B  1103               	clrz
  2034  054C  1803               	skipnc
  2035  054D  3E01               	addlw	1
  2036  054E  1903               	skipnz
  2037  054F  2D51               	goto	u1562
  2038  0550  07AB               	addwf	___flmul@grs+2,f
  2039  0551                     u1562:
  2040  0551  087C               	movf	??___flmul+3,w
  2041  0552  1103               	clrz
  2042  0553  1803               	skipnc
  2043  0554  3E01               	addlw	1
  2044  0555  1903               	skipnz
  2045  0556  2D58               	goto	u1563
  2046  0557  07AC               	addwf	___flmul@grs+3,f
  2047  0558                     u1563:
  2048  0558                     l1366:
  2049  0558  0834               	movf	___flmul@temp+1,w
  2050  0559  00F9               	movwf	??___flmul
  2051  055A  01FA               	clrf	??___flmul+1
  2052  055B  01FB               	clrf	??___flmul+2
  2053  055C  01FC               	clrf	??___flmul+3
  2054  055D  0879               	movf	??___flmul,w
  2055  055E  07AF               	addwf	___flmul@prod,f
  2056  055F  087A               	movf	??___flmul+1,w
  2057  0560  1103               	clrz
  2058  0561  1803               	skipnc
  2059  0562  3E01               	addlw	1
  2060  0563  1903               	skipnz
  2061  0564  2D66               	goto	u1571
  2062  0565  07B0               	addwf	___flmul@prod+1,f
  2063  0566                     u1571:
  2064  0566  087B               	movf	??___flmul+2,w
  2065  0567  1103               	clrz
  2066  0568  1803               	skipnc
  2067  0569  3E01               	addlw	1
  2068  056A  1903               	skipnz
  2069  056B  2D6D               	goto	u1572
  2070  056C  07B1               	addwf	___flmul@prod+2,f
  2071  056D                     u1572:
  2072  056D  087C               	movf	??___flmul+3,w
  2073  056E  1103               	clrz
  2074  056F  1803               	skipnc
  2075  0570  3E01               	addlw	1
  2076  0571  1903               	skipnz
  2077  0572  2D74               	goto	u1573
  2078  0573  07B2               	addwf	___flmul@prod+3,f
  2079  0574                     u1573:
  2080  0574  0822               	movf	___flmul@b+2,w
  2081  0575  00F9               	movwf	??___flmul
  2082  0576  0879               	movf	??___flmul,w
  2083  0577  00F0               	movwf	__Umul8_16@multiplicand
  2084  0578  0824               	movf	___flmul@a,w
  2085  0579  120A  118A  2010  120A  118A  	fcall	__Umul8_16
  2086  057E  0871               	movf	?__Umul8_16+1,w
  2087  057F  1283               	bcf	3,5	;RP0=0, select bank0
  2088  0580  1303               	bcf	3,6	;RP1=0, select bank0
  2089  0581  00B4               	movwf	___flmul@temp+1
  2090  0582  0870               	movf	?__Umul8_16,w
  2091  0583  00B3               	movwf	___flmul@temp
  2092  0584                     l1368:
  2093  0584  0833               	movf	___flmul@temp,w
  2094  0585  00F9               	movwf	??___flmul
  2095  0586  01FA               	clrf	??___flmul+1
  2096  0587  01FB               	clrf	??___flmul+2
  2097  0588  01FC               	clrf	??___flmul+3
  2098  0589  0879               	movf	??___flmul,w
  2099  058A  07A9               	addwf	___flmul@grs,f
  2100  058B  087A               	movf	??___flmul+1,w
  2101  058C  1103               	clrz
  2102  058D  1803               	skipnc
  2103  058E  3E01               	addlw	1
  2104  058F  1903               	skipnz
  2105  0590  2D92               	goto	u1581
  2106  0591  07AA               	addwf	___flmul@grs+1,f
  2107  0592                     u1581:
  2108  0592  087B               	movf	??___flmul+2,w
  2109  0593  1103               	clrz
  2110  0594  1803               	skipnc
  2111  0595  3E01               	addlw	1
  2112  0596  1903               	skipnz
  2113  0597  2D99               	goto	u1582
  2114  0598  07AB               	addwf	___flmul@grs+2,f
  2115  0599                     u1582:
  2116  0599  087C               	movf	??___flmul+3,w
  2117  059A  1103               	clrz
  2118  059B  1803               	skipnc
  2119  059C  3E01               	addlw	1
  2120  059D  1903               	skipnz
  2121  059E  2DA0               	goto	u1583
  2122  059F  07AC               	addwf	___flmul@grs+3,f
  2123  05A0                     u1583:
  2124  05A0                     l1370:
  2125  05A0  0834               	movf	___flmul@temp+1,w
  2126  05A1  00F9               	movwf	??___flmul
  2127  05A2  01FA               	clrf	??___flmul+1
  2128  05A3  01FB               	clrf	??___flmul+2
  2129  05A4  01FC               	clrf	??___flmul+3
  2130  05A5  0879               	movf	??___flmul,w
  2131  05A6  07AF               	addwf	___flmul@prod,f
  2132  05A7  087A               	movf	??___flmul+1,w
  2133  05A8  1103               	clrz
  2134  05A9  1803               	skipnc
  2135  05AA  3E01               	addlw	1
  2136  05AB  1903               	skipnz
  2137  05AC  2DAE               	goto	u1591
  2138  05AD  07B0               	addwf	___flmul@prod+1,f
  2139  05AE                     u1591:
  2140  05AE  087B               	movf	??___flmul+2,w
  2141  05AF  1103               	clrz
  2142  05B0  1803               	skipnc
  2143  05B1  3E01               	addlw	1
  2144  05B2  1903               	skipnz
  2145  05B3  2DB5               	goto	u1592
  2146  05B4  07B1               	addwf	___flmul@prod+2,f
  2147  05B5                     u1592:
  2148  05B5  087C               	movf	??___flmul+3,w
  2149  05B6  1103               	clrz
  2150  05B7  1803               	skipnc
  2151  05B8  3E01               	addlw	1
  2152  05B9  1903               	skipnz
  2153  05BA  2DBC               	goto	u1593
  2154  05BB  07B2               	addwf	___flmul@prod+3,f
  2155  05BC                     u1593:
  2156  05BC                     l1372:
  2157  05BC  3008               	movlw	8
  2158  05BD  00F9               	movwf	??___flmul
  2159  05BE                     u1605:
  2160  05BE  1003               	clrc
  2161  05BF  0DA9               	rlf	___flmul@grs,f
  2162  05C0  0DAA               	rlf	___flmul@grs+1,f
  2163  05C1  0DAB               	rlf	___flmul@grs+2,f
  2164  05C2  0DAC               	rlf	___flmul@grs+3,f
  2165  05C3  0BF9               	decfsz	??___flmul,f
  2166  05C4  2DBE               	goto	u1605
  2167  05C5                     l1374:
  2168  05C5  0821               	movf	___flmul@b+1,w
  2169  05C6  00F9               	movwf	??___flmul
  2170  05C7  0879               	movf	??___flmul,w
  2171  05C8  00F0               	movwf	__Umul8_16@multiplicand
  2172  05C9  0824               	movf	___flmul@a,w
  2173  05CA  120A  118A  2010  120A  118A  	fcall	__Umul8_16
  2174  05CF  0871               	movf	?__Umul8_16+1,w
  2175  05D0  1283               	bcf	3,5	;RP0=0, select bank0
  2176  05D1  1303               	bcf	3,6	;RP1=0, select bank0
  2177  05D2  00B4               	movwf	___flmul@temp+1
  2178  05D3  0870               	movf	?__Umul8_16,w
  2179  05D4  00B3               	movwf	___flmul@temp
  2180  05D5                     l1376:
  2181  05D5  0833               	movf	___flmul@temp,w
  2182  05D6  00F9               	movwf	??___flmul
  2183  05D7  0834               	movf	___flmul@temp+1,w
  2184  05D8  00FA               	movwf	??___flmul+1
  2185  05D9  01FB               	clrf	??___flmul+2
  2186  05DA  01FC               	clrf	??___flmul+3
  2187  05DB  0879               	movf	??___flmul,w
  2188  05DC  07A9               	addwf	___flmul@grs,f
  2189  05DD  087A               	movf	??___flmul+1,w
  2190  05DE  1103               	clrz
  2191  05DF  1803               	skipnc
  2192  05E0  3E01               	addlw	1
  2193  05E1  1903               	skipnz
  2194  05E2  2DE4               	goto	u1611
  2195  05E3  07AA               	addwf	___flmul@grs+1,f
  2196  05E4                     u1611:
  2197  05E4  087B               	movf	??___flmul+2,w
  2198  05E5  1103               	clrz
  2199  05E6  1803               	skipnc
  2200  05E7  3E01               	addlw	1
  2201  05E8  1903               	skipnz
  2202  05E9  2DEB               	goto	u1612
  2203  05EA  07AB               	addwf	___flmul@grs+2,f
  2204  05EB                     u1612:
  2205  05EB  087C               	movf	??___flmul+3,w
  2206  05EC  1103               	clrz
  2207  05ED  1803               	skipnc
  2208  05EE  3E01               	addlw	1
  2209  05EF  1903               	skipnz
  2210  05F0  2DF2               	goto	u1613
  2211  05F1  07AC               	addwf	___flmul@grs+3,f
  2212  05F2                     u1613:
  2213  05F2                     l1378:
  2214  05F2  0820               	movf	___flmul@b,w
  2215  05F3  00F9               	movwf	??___flmul
  2216  05F4  0879               	movf	??___flmul,w
  2217  05F5  00F0               	movwf	__Umul8_16@multiplicand
  2218  05F6  0825               	movf	___flmul@a+1,w
  2219  05F7  120A  118A  2010  120A  118A  	fcall	__Umul8_16
  2220  05FC  0871               	movf	?__Umul8_16+1,w
  2221  05FD  1283               	bcf	3,5	;RP0=0, select bank0
  2222  05FE  1303               	bcf	3,6	;RP1=0, select bank0
  2223  05FF  00B4               	movwf	___flmul@temp+1
  2224  0600  0870               	movf	?__Umul8_16,w
  2225  0601  00B3               	movwf	___flmul@temp
  2226  0602                     l1380:
  2227  0602  0833               	movf	___flmul@temp,w
  2228  0603  00F9               	movwf	??___flmul
  2229  0604  0834               	movf	___flmul@temp+1,w
  2230  0605  00FA               	movwf	??___flmul+1
  2231  0606  01FB               	clrf	??___flmul+2
  2232  0607  01FC               	clrf	??___flmul+3
  2233  0608  0879               	movf	??___flmul,w
  2234  0609  07A9               	addwf	___flmul@grs,f
  2235  060A  087A               	movf	??___flmul+1,w
  2236  060B  1103               	clrz
  2237  060C  1803               	skipnc
  2238  060D  3E01               	addlw	1
  2239  060E  1903               	skipnz
  2240  060F  2E11               	goto	u1621
  2241  0610  07AA               	addwf	___flmul@grs+1,f
  2242  0611                     u1621:
  2243  0611  087B               	movf	??___flmul+2,w
  2244  0612  1103               	clrz
  2245  0613  1803               	skipnc
  2246  0614  3E01               	addlw	1
  2247  0615  1903               	skipnz
  2248  0616  2E18               	goto	u1622
  2249  0617  07AB               	addwf	___flmul@grs+2,f
  2250  0618                     u1622:
  2251  0618  087C               	movf	??___flmul+3,w
  2252  0619  1103               	clrz
  2253  061A  1803               	skipnc
  2254  061B  3E01               	addlw	1
  2255  061C  1903               	skipnz
  2256  061D  2E1F               	goto	u1623
  2257  061E  07AC               	addwf	___flmul@grs+3,f
  2258  061F                     u1623:
  2259  061F                     l1382:
  2260  061F  3008               	movlw	8
  2261  0620  00F9               	movwf	??___flmul
  2262  0621                     u1635:
  2263  0621  1003               	clrc
  2264  0622  0DA9               	rlf	___flmul@grs,f
  2265  0623  0DAA               	rlf	___flmul@grs+1,f
  2266  0624  0DAB               	rlf	___flmul@grs+2,f
  2267  0625  0DAC               	rlf	___flmul@grs+3,f
  2268  0626  0BF9               	decfsz	??___flmul,f
  2269  0627  2E21               	goto	u1635
  2270  0628  0820               	movf	___flmul@b,w
  2271  0629  00F9               	movwf	??___flmul
  2272  062A  0879               	movf	??___flmul,w
  2273  062B  00F0               	movwf	__Umul8_16@multiplicand
  2274  062C  0824               	movf	___flmul@a,w
  2275  062D  120A  118A  2010  120A  118A  	fcall	__Umul8_16
  2276  0632  0871               	movf	?__Umul8_16+1,w
  2277  0633  1283               	bcf	3,5	;RP0=0, select bank0
  2278  0634  1303               	bcf	3,6	;RP1=0, select bank0
  2279  0635  00B4               	movwf	___flmul@temp+1
  2280  0636  0870               	movf	?__Umul8_16,w
  2281  0637  00B3               	movwf	___flmul@temp
  2282  0638                     l1384:
  2283  0638  0833               	movf	___flmul@temp,w
  2284  0639  00F9               	movwf	??___flmul
  2285  063A  0834               	movf	___flmul@temp+1,w
  2286  063B  00FA               	movwf	??___flmul+1
  2287  063C  01FB               	clrf	??___flmul+2
  2288  063D  01FC               	clrf	??___flmul+3
  2289  063E  0879               	movf	??___flmul,w
  2290  063F  07A9               	addwf	___flmul@grs,f
  2291  0640  087A               	movf	??___flmul+1,w
  2292  0641  1103               	clrz
  2293  0642  1803               	skipnc
  2294  0643  3E01               	addlw	1
  2295  0644  1903               	skipnz
  2296  0645  2E47               	goto	u1641
  2297  0646  07AA               	addwf	___flmul@grs+1,f
  2298  0647                     u1641:
  2299  0647  087B               	movf	??___flmul+2,w
  2300  0648  1103               	clrz
  2301  0649  1803               	skipnc
  2302  064A  3E01               	addlw	1
  2303  064B  1903               	skipnz
  2304  064C  2E4E               	goto	u1642
  2305  064D  07AB               	addwf	___flmul@grs+2,f
  2306  064E                     u1642:
  2307  064E  087C               	movf	??___flmul+3,w
  2308  064F  1103               	clrz
  2309  0650  1803               	skipnc
  2310  0651  3E01               	addlw	1
  2311  0652  1903               	skipnz
  2312  0653  2E55               	goto	u1643
  2313  0654  07AC               	addwf	___flmul@grs+3,f
  2314  0655                     u1643:
  2315  0655                     l1386:
  2316  0655  0821               	movf	___flmul@b+1,w
  2317  0656  00F9               	movwf	??___flmul
  2318  0657  0879               	movf	??___flmul,w
  2319  0658  00F0               	movwf	__Umul8_16@multiplicand
  2320  0659  0826               	movf	___flmul@a+2,w
  2321  065A  120A  118A  2010  120A  118A  	fcall	__Umul8_16
  2322  065F  0871               	movf	?__Umul8_16+1,w
  2323  0660  1283               	bcf	3,5	;RP0=0, select bank0
  2324  0661  1303               	bcf	3,6	;RP1=0, select bank0
  2325  0662  00B4               	movwf	___flmul@temp+1
  2326  0663  0870               	movf	?__Umul8_16,w
  2327  0664  00B3               	movwf	___flmul@temp
  2328  0665  0833               	movf	___flmul@temp,w
  2329  0666  00F9               	movwf	??___flmul
  2330  0667  0834               	movf	___flmul@temp+1,w
  2331  0668  00FA               	movwf	??___flmul+1
  2332  0669  01FB               	clrf	??___flmul+2
  2333  066A  01FC               	clrf	??___flmul+3
  2334  066B  0879               	movf	??___flmul,w
  2335  066C  07AF               	addwf	___flmul@prod,f
  2336  066D  087A               	movf	??___flmul+1,w
  2337  066E  1103               	clrz
  2338  066F  1803               	skipnc
  2339  0670  3E01               	addlw	1
  2340  0671  1903               	skipnz
  2341  0672  2E74               	goto	u1651
  2342  0673  07B0               	addwf	___flmul@prod+1,f
  2343  0674                     u1651:
  2344  0674  087B               	movf	??___flmul+2,w
  2345  0675  1103               	clrz
  2346  0676  1803               	skipnc
  2347  0677  3E01               	addlw	1
  2348  0678  1903               	skipnz
  2349  0679  2E7B               	goto	u1652
  2350  067A  07B1               	addwf	___flmul@prod+2,f
  2351  067B                     u1652:
  2352  067B  087C               	movf	??___flmul+3,w
  2353  067C  1103               	clrz
  2354  067D  1803               	skipnc
  2355  067E  3E01               	addlw	1
  2356  067F  1903               	skipnz
  2357  0680  2E82               	goto	u1653
  2358  0681  07B2               	addwf	___flmul@prod+3,f
  2359  0682                     u1653:
  2360  0682                     l1388:
  2361  0682  0822               	movf	___flmul@b+2,w
  2362  0683  00F9               	movwf	??___flmul
  2363  0684  0879               	movf	??___flmul,w
  2364  0685  00F0               	movwf	__Umul8_16@multiplicand
  2365  0686  0825               	movf	___flmul@a+1,w
  2366  0687  120A  118A  2010  120A  118A  	fcall	__Umul8_16
  2367  068C  0871               	movf	?__Umul8_16+1,w
  2368  068D  1283               	bcf	3,5	;RP0=0, select bank0
  2369  068E  1303               	bcf	3,6	;RP1=0, select bank0
  2370  068F  00B4               	movwf	___flmul@temp+1
  2371  0690  0870               	movf	?__Umul8_16,w
  2372  0691  00B3               	movwf	___flmul@temp
  2373  0692                     l1390:
  2374  0692  0833               	movf	___flmul@temp,w
  2375  0693  00F9               	movwf	??___flmul
  2376  0694  0834               	movf	___flmul@temp+1,w
  2377  0695  00FA               	movwf	??___flmul+1
  2378  0696  01FB               	clrf	??___flmul+2
  2379  0697  01FC               	clrf	??___flmul+3
  2380  0698  0879               	movf	??___flmul,w
  2381  0699  07AF               	addwf	___flmul@prod,f
  2382  069A  087A               	movf	??___flmul+1,w
  2383  069B  1103               	clrz
  2384  069C  1803               	skipnc
  2385  069D  3E01               	addlw	1
  2386  069E  1903               	skipnz
  2387  069F  2EA1               	goto	u1661
  2388  06A0  07B0               	addwf	___flmul@prod+1,f
  2389  06A1                     u1661:
  2390  06A1  087B               	movf	??___flmul+2,w
  2391  06A2  1103               	clrz
  2392  06A3  1803               	skipnc
  2393  06A4  3E01               	addlw	1
  2394  06A5  1903               	skipnz
  2395  06A6  2EA8               	goto	u1662
  2396  06A7  07B1               	addwf	___flmul@prod+2,f
  2397  06A8                     u1662:
  2398  06A8  087C               	movf	??___flmul+3,w
  2399  06A9  1103               	clrz
  2400  06AA  1803               	skipnc
  2401  06AB  3E01               	addlw	1
  2402  06AC  1903               	skipnz
  2403  06AD  2EAF               	goto	u1663
  2404  06AE  07B2               	addwf	___flmul@prod+3,f
  2405  06AF                     u1663:
  2406  06AF  0822               	movf	___flmul@b+2,w
  2407  06B0  00F9               	movwf	??___flmul
  2408  06B1  0879               	movf	??___flmul,w
  2409  06B2  00F0               	movwf	__Umul8_16@multiplicand
  2410  06B3  0826               	movf	___flmul@a+2,w
  2411  06B4  120A  118A  2010  120A  118A  	fcall	__Umul8_16
  2412  06B9  0871               	movf	?__Umul8_16+1,w
  2413  06BA  1283               	bcf	3,5	;RP0=0, select bank0
  2414  06BB  1303               	bcf	3,6	;RP1=0, select bank0
  2415  06BC  00B4               	movwf	___flmul@temp+1
  2416  06BD  0870               	movf	?__Umul8_16,w
  2417  06BE  00B3               	movwf	___flmul@temp
  2418  06BF                     l1392:
  2419  06BF  0833               	movf	___flmul@temp,w
  2420  06C0  00F9               	movwf	??___flmul
  2421  06C1  0834               	movf	___flmul@temp+1,w
  2422  06C2  00FA               	movwf	??___flmul+1
  2423  06C3  01FB               	clrf	??___flmul+2
  2424  06C4  01FC               	clrf	??___flmul+3
  2425  06C5  3008               	movlw	8
  2426  06C6                     u1675:
  2427  06C6  1003               	clrc
  2428  06C7  0DF9               	rlf	??___flmul,f
  2429  06C8  0DFA               	rlf	??___flmul+1,f
  2430  06C9  0DFB               	rlf	??___flmul+2,f
  2431  06CA  0DFC               	rlf	??___flmul+3,f
  2432  06CB                     u1670:
  2433  06CB  3EFF               	addlw	-1
  2434  06CC  1D03               	skipz
  2435  06CD  2EC6               	goto	u1675
  2436  06CE  0879               	movf	??___flmul,w
  2437  06CF  07AF               	addwf	___flmul@prod,f
  2438  06D0  087A               	movf	??___flmul+1,w
  2439  06D1  1103               	clrz
  2440  06D2  1803               	skipnc
  2441  06D3  3E01               	addlw	1
  2442  06D4  1903               	skipnz
  2443  06D5  2ED7               	goto	u1681
  2444  06D6  07B0               	addwf	___flmul@prod+1,f
  2445  06D7                     u1681:
  2446  06D7  087B               	movf	??___flmul+2,w
  2447  06D8  1103               	clrz
  2448  06D9  1803               	skipnc
  2449  06DA  3E01               	addlw	1
  2450  06DB  1903               	skipnz
  2451  06DC  2EDE               	goto	u1682
  2452  06DD  07B1               	addwf	___flmul@prod+2,f
  2453  06DE                     u1682:
  2454  06DE  087C               	movf	??___flmul+3,w
  2455  06DF  1103               	clrz
  2456  06E0  1803               	skipnc
  2457  06E1  3E01               	addlw	1
  2458  06E2  1903               	skipnz
  2459  06E3  2EE5               	goto	u1683
  2460  06E4  07B2               	addwf	___flmul@prod+3,f
  2461  06E5                     u1683:
  2462  06E5                     l1394:
  2463  06E5  0829               	movf	___flmul@grs,w
  2464  06E6  00F9               	movwf	??___flmul
  2465  06E7  082A               	movf	___flmul@grs+1,w
  2466  06E8  00FA               	movwf	??___flmul+1
  2467  06E9  082B               	movf	___flmul@grs+2,w
  2468  06EA  00FB               	movwf	??___flmul+2
  2469  06EB  082C               	movf	___flmul@grs+3,w
  2470  06EC  00FC               	movwf	??___flmul+3
  2471  06ED  3018               	movlw	24
  2472  06EE                     u1695:
  2473  06EE  1003               	clrc
  2474  06EF  0CFC               	rrf	??___flmul+3,f
  2475  06F0  0CFB               	rrf	??___flmul+2,f
  2476  06F1  0CFA               	rrf	??___flmul+1,f
  2477  06F2  0CF9               	rrf	??___flmul,f
  2478  06F3                     u1690:
  2479  06F3  3EFF               	addlw	-1
  2480  06F4  1D03               	skipz
  2481  06F5  2EEE               	goto	u1695
  2482  06F6  0879               	movf	??___flmul,w
  2483  06F7  07AF               	addwf	___flmul@prod,f
  2484  06F8  087A               	movf	??___flmul+1,w
  2485  06F9  1103               	clrz
  2486  06FA  1803               	skipnc
  2487  06FB  3E01               	addlw	1
  2488  06FC  1903               	skipnz
  2489  06FD  2EFF               	goto	u1701
  2490  06FE  07B0               	addwf	___flmul@prod+1,f
  2491  06FF                     u1701:
  2492  06FF  087B               	movf	??___flmul+2,w
  2493  0700  1103               	clrz
  2494  0701  1803               	skipnc
  2495  0702  3E01               	addlw	1
  2496  0703  1903               	skipnz
  2497  0704  2F06               	goto	u1702
  2498  0705  07B1               	addwf	___flmul@prod+2,f
  2499  0706                     u1702:
  2500  0706  087C               	movf	??___flmul+3,w
  2501  0707  1103               	clrz
  2502  0708  1803               	skipnc
  2503  0709  3E01               	addlw	1
  2504  070A  1903               	skipnz
  2505  070B  2F0D               	goto	u1703
  2506  070C  07B2               	addwf	___flmul@prod+3,f
  2507  070D                     u1703:
  2508  070D                     l1396:
  2509  070D  3008               	movlw	8
  2510  070E  00F9               	movwf	??___flmul
  2511  070F                     u1715:
  2512  070F  1003               	clrc
  2513  0710  0DA9               	rlf	___flmul@grs,f
  2514  0711  0DAA               	rlf	___flmul@grs+1,f
  2515  0712  0DAB               	rlf	___flmul@grs+2,f
  2516  0713  0DAC               	rlf	___flmul@grs+3,f
  2517  0714  0BF9               	decfsz	??___flmul,f
  2518  0715  2F0F               	goto	u1715
  2519  0716                     l1398:
  2520  0716  082E               	movf	___flmul@bexp,w
  2521  0717  072D               	addwf	___flmul@aexp,w
  2522  0718  00F9               	movwf	??___flmul
  2523  0719  01FA               	clrf	??___flmul+1
  2524  071A  0DFA               	rlf	??___flmul+1,f
  2525  071B  0879               	movf	??___flmul,w
  2526  071C  3E82               	addlw	130
  2527  071D  00B3               	movwf	___flmul@temp
  2528  071E  087A               	movf	??___flmul+1,w
  2529  071F  1803               	skipnc
  2530  0720  3E01               	addlw	1
  2531  0721  3EFF               	addlw	255
  2532  0722  00B4               	movwf	___flmul@temp+1
  2533  0723  2F41               	goto	l1410
  2534  0724                     l1400:
  2535  0724  3001               	movlw	1
  2536  0725  00F9               	movwf	??___flmul
  2537  0726                     u1725:
  2538  0726  1003               	clrc
  2539  0727  0DAF               	rlf	___flmul@prod,f
  2540  0728  0DB0               	rlf	___flmul@prod+1,f
  2541  0729  0DB1               	rlf	___flmul@prod+2,f
  2542  072A  0DB2               	rlf	___flmul@prod+3,f
  2543  072B  0BF9               	decfsz	??___flmul,f
  2544  072C  2F26               	goto	u1725
  2545  072D                     l1402:
  2546  072D  1FAC               	btfss	___flmul@grs+3,7
  2547  072E  2F30               	goto	u1731
  2548  072F  2F31               	goto	u1730
  2549  0730                     u1731:
  2550  0730  2F32               	goto	l1406
  2551  0731                     u1730:
  2552  0731                     l1404:
  2553  0731  142F               	bsf	___flmul@prod,0
  2554  0732                     l1406:
  2555  0732  3001               	movlw	1
  2556  0733  00F9               	movwf	??___flmul
  2557  0734                     u1745:
  2558  0734  1003               	clrc
  2559  0735  0DA9               	rlf	___flmul@grs,f
  2560  0736  0DAA               	rlf	___flmul@grs+1,f
  2561  0737  0DAB               	rlf	___flmul@grs+2,f
  2562  0738  0DAC               	rlf	___flmul@grs+3,f
  2563  0739  0BF9               	decfsz	??___flmul,f
  2564  073A  2F34               	goto	u1745
  2565  073B                     l1408:
  2566  073B  30FF               	movlw	255
  2567  073C  07B3               	addwf	___flmul@temp,f
  2568  073D  1803               	skipnc
  2569  073E  0AB4               	incf	___flmul@temp+1,f
  2570  073F  30FF               	movlw	255
  2571  0740  07B4               	addwf	___flmul@temp+1,f
  2572  0741                     l1410:
  2573  0741  1FB1               	btfss	___flmul@prod+2,7
  2574  0742  2F44               	goto	u1751
  2575  0743  2F45               	goto	u1750
  2576  0744                     u1751:
  2577  0744  2F24               	goto	l1400
  2578  0745                     u1750:
  2579  0745                     l1412:
  2580  0745  01AD               	clrf	___flmul@aexp
  2581  0746                     l1414:
  2582  0746  1FAC               	btfss	___flmul@grs+3,7
  2583  0747  2F49               	goto	u1761
  2584  0748  2F4A               	goto	u1760
  2585  0749                     u1761:
  2586  0749  2F66               	goto	l1422
  2587  074A                     u1760:
  2588  074A                     l1416:
  2589  074A  30FF               	movlw	255
  2590  074B  0529               	andwf	___flmul@grs,w
  2591  074C  00F9               	movwf	??___flmul
  2592  074D  30FF               	movlw	255
  2593  074E  052A               	andwf	___flmul@grs+1,w
  2594  074F  00FA               	movwf	??___flmul+1
  2595  0750  30FF               	movlw	255
  2596  0751  052B               	andwf	___flmul@grs+2,w
  2597  0752  00FB               	movwf	??___flmul+2
  2598  0753  307F               	movlw	127
  2599  0754  052C               	andwf	___flmul@grs+3,w
  2600  0755  00FC               	movwf	??___flmul+3
  2601  0756  087C               	movf	??___flmul+3,w
  2602  0757  047B               	iorwf	??___flmul+2,w
  2603  0758  047A               	iorwf	??___flmul+1,w
  2604  0759  0479               	iorwf	??___flmul,w
  2605  075A  1903               	skipnz
  2606  075B  2F5D               	goto	u1771
  2607  075C  2F5E               	goto	u1770
  2608  075D                     u1771:
  2609  075D  2F61               	goto	l549
  2610  075E                     u1770:
  2611  075E                     l1418:
  2612  075E  01AD               	clrf	___flmul@aexp
  2613  075F  0AAD               	incf	___flmul@aexp,f
  2614  0760  2F66               	goto	l1422
  2615  0761                     l549:
  2616  0761  1C2F               	btfss	___flmul@prod,0
  2617  0762  2F64               	goto	u1781
  2618  0763  2F65               	goto	u1780
  2619  0764                     u1781:
  2620  0764  2F66               	goto	l1422
  2621  0765                     u1780:
  2622  0765  2F5E               	goto	l1418
  2623  0766                     l1422:
  2624  0766  082D               	movf	___flmul@aexp,w
  2625  0767  1903               	btfsc	3,2
  2626  0768  2F6A               	goto	u1791
  2627  0769  2F6B               	goto	u1790
  2628  076A                     u1791:
  2629  076A  2F9C               	goto	l1432
  2630  076B                     u1790:
  2631  076B                     l1424:
  2632  076B  3001               	movlw	1
  2633  076C  07AF               	addwf	___flmul@prod,f
  2634  076D  3000               	movlw	0
  2635  076E  1803               	skipnc
  2636  076F  3001               	movlw	1
  2637  0770  07B0               	addwf	___flmul@prod+1,f
  2638  0771  3000               	movlw	0
  2639  0772  1803               	skipnc
  2640  0773  3001               	movlw	1
  2641  0774  07B1               	addwf	___flmul@prod+2,f
  2642  0775  3000               	movlw	0
  2643  0776  1803               	skipnc
  2644  0777  3001               	movlw	1
  2645  0778  07B2               	addwf	___flmul@prod+3,f
  2646  0779                     l1426:
  2647  0779  1C32               	btfss	___flmul@prod+3,0
  2648  077A  2F7C               	goto	u1801
  2649  077B  2F7D               	goto	u1800
  2650  077C                     u1801:
  2651  077C  2F9C               	goto	l1432
  2652  077D                     u1800:
  2653  077D                     l1428:
  2654  077D  082F               	movf	___flmul@prod,w
  2655  077E  00F9               	movwf	??___flmul
  2656  077F  0830               	movf	___flmul@prod+1,w
  2657  0780  00FA               	movwf	??___flmul+1
  2658  0781  0831               	movf	___flmul@prod+2,w
  2659  0782  00FB               	movwf	??___flmul+2
  2660  0783  0832               	movf	___flmul@prod+3,w
  2661  0784  00FC               	movwf	??___flmul+3
  2662  0785  3001               	movlw	1
  2663  0786  00FD               	movwf	??___flmul+4
  2664  0787                     u1815:
  2665  0787  0D7C               	rlf	??___flmul+3,w
  2666  0788  0CFC               	rrf	??___flmul+3,f
  2667  0789  0CFB               	rrf	??___flmul+2,f
  2668  078A  0CFA               	rrf	??___flmul+1,f
  2669  078B  0CF9               	rrf	??___flmul,f
  2670  078C                     u1810:
  2671  078C  0BFD               	decfsz	??___flmul+4,f
  2672  078D  2F87               	goto	u1815
  2673  078E  087C               	movf	??___flmul+3,w
  2674  078F  00B2               	movwf	___flmul@prod+3
  2675  0790  087B               	movf	??___flmul+2,w
  2676  0791  00B1               	movwf	___flmul@prod+2
  2677  0792  087A               	movf	??___flmul+1,w
  2678  0793  00B0               	movwf	___flmul@prod+1
  2679  0794  0879               	movf	??___flmul,w
  2680  0795  00AF               	movwf	___flmul@prod
  2681  0796                     l1430:
  2682  0796  3001               	movlw	1
  2683  0797  07B3               	addwf	___flmul@temp,f
  2684  0798  1803               	skipnc
  2685  0799  0AB4               	incf	___flmul@temp+1,f
  2686  079A  3000               	movlw	0
  2687  079B  07B4               	addwf	___flmul@temp+1,f
  2688  079C                     l1432:
  2689  079C  0834               	movf	___flmul@temp+1,w
  2690  079D  3A80               	xorlw	128
  2691  079E  00FF               	movwf	btemp+1
  2692  079F  3080               	movlw	128
  2693  07A0  027F               	subwf	btemp+1,w
  2694  07A1  1D03               	skipz
  2695  07A2  2FA5               	goto	u1825
  2696  07A3  30FF               	movlw	255
  2697  07A4  0233               	subwf	___flmul@temp,w
  2698  07A5                     u1825:
  2699  07A5  1C03               	skipc
  2700  07A6  2FA8               	goto	u1821
  2701  07A7  2FA9               	goto	u1820
  2702  07A8                     u1821:
  2703  07A8  2FB4               	goto	l1436
  2704  07A9                     u1820:
  2705  07A9                     l1434:
  2706  07A9  307F               	movlw	127
  2707  07AA  1283               	bcf	3,5	;RP0=0, select bank0
  2708  07AB  1303               	bcf	3,6	;RP1=0, select bank0
  2709  07AC  00B2               	movwf	___flmul@prod+3
  2710  07AD  3080               	movlw	128
  2711  07AE  00B1               	movwf	___flmul@prod+2
  2712  07AF  3000               	movlw	0
  2713  07B0  00B0               	movwf	___flmul@prod+1
  2714  07B1  3000               	movlw	0
  2715  07B2  00AF               	movwf	___flmul@prod
  2716  07B3  2FE9               	goto	l555
  2717  07B4                     l1436:
  2718  07B4  1283               	bcf	3,5	;RP0=0, select bank0
  2719  07B5  1303               	bcf	3,6	;RP1=0, select bank0
  2720  07B6  0834               	movf	___flmul@temp+1,w
  2721  07B7  3A80               	xorlw	128
  2722  07B8  00FF               	movwf	btemp+1
  2723  07B9  3080               	movlw	128
  2724  07BA  027F               	subwf	btemp+1,w
  2725  07BB  1D03               	skipz
  2726  07BC  2FBF               	goto	u1835
  2727  07BD  3001               	movlw	1
  2728  07BE  0233               	subwf	___flmul@temp,w
  2729  07BF                     u1835:
  2730  07BF  1803               	skipnc
  2731  07C0  2FC2               	goto	u1831
  2732  07C1  2FC3               	goto	u1830
  2733  07C2                     u1831:
  2734  07C2  2FCF               	goto	l1442
  2735  07C3                     u1830:
  2736  07C3                     l1438:
  2737  07C3  3000               	movlw	0
  2738  07C4  1283               	bcf	3,5	;RP0=0, select bank0
  2739  07C5  1303               	bcf	3,6	;RP1=0, select bank0
  2740  07C6  00B2               	movwf	___flmul@prod+3
  2741  07C7  3000               	movlw	0
  2742  07C8  00B1               	movwf	___flmul@prod+2
  2743  07C9  3000               	movlw	0
  2744  07CA  00B0               	movwf	___flmul@prod+1
  2745  07CB  3000               	movlw	0
  2746  07CC  00AF               	movwf	___flmul@prod
  2747  07CD                     l1440:
  2748  07CD  01A8               	clrf	___flmul@sign
  2749  07CE  2FE9               	goto	l555
  2750  07CF                     l1442:
  2751  07CF  1283               	bcf	3,5	;RP0=0, select bank0
  2752  07D0  1303               	bcf	3,6	;RP1=0, select bank0
  2753  07D1  0833               	movf	___flmul@temp,w
  2754  07D2  00F9               	movwf	??___flmul
  2755  07D3  0879               	movf	??___flmul,w
  2756  07D4  00AE               	movwf	___flmul@bexp
  2757  07D5  30FF               	movlw	255
  2758  07D6  05AF               	andwf	___flmul@prod,f
  2759  07D7  30FF               	movlw	255
  2760  07D8  05B0               	andwf	___flmul@prod+1,f
  2761  07D9  307F               	movlw	127
  2762  07DA  05B1               	andwf	___flmul@prod+2,f
  2763  07DB  3000               	movlw	0
  2764  07DC  05B2               	andwf	___flmul@prod+3,f
  2765  07DD                     l1444:
  2766  07DD  1C2E               	btfss	___flmul@bexp,0
  2767  07DE  2FE0               	goto	u1841
  2768  07DF  2FE1               	goto	u1840
  2769  07E0                     u1841:
  2770  07E0  2FE2               	goto	l1448
  2771  07E1                     u1840:
  2772  07E1                     l1446:
  2773  07E1  17B1               	bsf	___flmul@prod+2,7
  2774  07E2                     l1448:
  2775  07E2  082E               	movf	___flmul@bexp,w
  2776  07E3  00F9               	movwf	??___flmul
  2777  07E4  1003               	clrc
  2778  07E5  0C79               	rrf	??___flmul,w
  2779  07E6  00FA               	movwf	??___flmul+1
  2780  07E7  087A               	movf	??___flmul+1,w
  2781  07E8  00B2               	movwf	___flmul@prod+3
  2782  07E9                     l555:
  2783  07E9  0828               	movf	___flmul@sign,w
  2784  07EA  00F9               	movwf	??___flmul
  2785  07EB  0879               	movf	??___flmul,w
  2786  07EC  04B2               	iorwf	___flmul@prod+3,f
  2787  07ED                     l1450:
  2788  07ED  0832               	movf	___flmul@prod+3,w
  2789  07EE  00A3               	movwf	?___flmul+3
  2790  07EF  0831               	movf	___flmul@prod+2,w
  2791  07F0  00A2               	movwf	?___flmul+2
  2792  07F1  0830               	movf	___flmul@prod+1,w
  2793  07F2  00A1               	movwf	?___flmul+1
  2794  07F3  082F               	movf	___flmul@prod,w
  2795  07F4  00A0               	movwf	?___flmul
  2796  07F5                     l543:
  2797  07F5  0008               	return
  2798  07F6                     __end_of___flmul:
  2799                           
  2800                           	psect	text7
  2801  0010                     __ptext7:	
  2802 ;; *************** function __Umul8_16 *****************
  2803 ;; Defined at:
  2804 ;;		line 4 in file "C:\Program Files\Microchip\xc8\v2.31\pic\sources\c90\common\Umul8_16.c"
  2805 ;; Parameters:    Size  Location     Type
  2806 ;;  multiplier      1    wreg     unsigned char 
  2807 ;;  multiplicand    1    0[COMMON] unsigned char 
  2808 ;; Auto vars:     Size  Location     Type
  2809 ;;  multiplier      1    8[COMMON] unsigned char 
  2810 ;;  word_mpld       2    6[COMMON] unsigned int 
  2811 ;;  product         2    4[COMMON] unsigned int 
  2812 ;; Return value:  Size  Location     Type
  2813 ;;                  2    0[COMMON] unsigned int 
  2814 ;; Registers used:
  2815 ;;		wreg, status,2, status,0
  2816 ;; Tracked objects:
  2817 ;;		On entry : 0/0
  2818 ;;		On exit  : 0/0
  2819 ;;		Unchanged: 0/0
  2820 ;; Data sizes:     COMMON   BANK0   BANK1   BANK3   BANK2
  2821 ;;      Params:         2       0       0       0       0
  2822 ;;      Locals:         5       0       0       0       0
  2823 ;;      Temps:          2       0       0       0       0
  2824 ;;      Totals:         9       0       0       0       0
  2825 ;;Total ram usage:        9 bytes
  2826 ;; Hardware stack levels used:    1
  2827 ;; This function calls:
  2828 ;;		Nothing
  2829 ;; This function is called by:
  2830 ;;		___flmul
  2831 ;; This function uses a non-reentrant model
  2832 ;;
  2833                           
  2834                           
  2835                           ;psect for function __Umul8_16
  2836  0010                     __Umul8_16:
  2837                           
  2838                           ;incstack = 0
  2839                           ; Regs used in __Umul8_16: [wreg+status,2+status,0]
  2840                           ;__Umul8_16@multiplier stored from wreg
  2841  0010  00F8               	movwf	__Umul8_16@multiplier
  2842  0011                     l1150:
  2843  0011  01F4               	clrf	__Umul8_16@product
  2844  0012  01F5               	clrf	__Umul8_16@product+1
  2845  0013                     l1152:
  2846  0013  0870               	movf	__Umul8_16@multiplicand,w
  2847  0014  00F2               	movwf	??__Umul8_16
  2848  0015  01F3               	clrf	??__Umul8_16+1
  2849  0016  0872               	movf	??__Umul8_16,w
  2850  0017  00F6               	movwf	__Umul8_16@word_mpld
  2851  0018  0873               	movf	??__Umul8_16+1,w
  2852  0019  00F7               	movwf	__Umul8_16@word_mpld+1
  2853  001A                     l1154:
  2854  001A  1C78               	btfss	__Umul8_16@multiplier,0
  2855  001B  281D               	goto	u1101
  2856  001C  281E               	goto	u1100
  2857  001D                     u1101:
  2858  001D  2824               	goto	l562
  2859  001E                     u1100:
  2860  001E                     l1156:
  2861  001E  0876               	movf	__Umul8_16@word_mpld,w
  2862  001F  07F4               	addwf	__Umul8_16@product,f
  2863  0020  1803               	skipnc
  2864  0021  0AF5               	incf	__Umul8_16@product+1,f
  2865  0022  0877               	movf	__Umul8_16@word_mpld+1,w
  2866  0023  07F5               	addwf	__Umul8_16@product+1,f
  2867  0024                     l562:
  2868  0024  3001               	movlw	1
  2869  0025                     u1115:
  2870  0025  1003               	clrc
  2871  0026  0DF6               	rlf	__Umul8_16@word_mpld,f
  2872  0027  0DF7               	rlf	__Umul8_16@word_mpld+1,f
  2873  0028  3EFF               	addlw	-1
  2874  0029  1D03               	skipz
  2875  002A  2825               	goto	u1115
  2876  002B  1003               	clrc
  2877  002C  0CF8               	rrf	__Umul8_16@multiplier,f
  2878  002D                     l1158:
  2879  002D  0878               	movf	__Umul8_16@multiplier,w
  2880  002E  1D03               	btfss	3,2
  2881  002F  2831               	goto	u1121
  2882  0030  2832               	goto	u1120
  2883  0031                     u1121:
  2884  0031  281A               	goto	l1154
  2885  0032                     u1120:
  2886  0032                     l1160:
  2887  0032  0875               	movf	__Umul8_16@product+1,w
  2888  0033  00F1               	movwf	?__Umul8_16+1
  2889  0034  0874               	movf	__Umul8_16@product,w
  2890  0035  00F0               	movwf	?__Umul8_16
  2891  0036                     l564:
  2892  0036  0008               	return
  2893  0037                     __end_of__Umul8_16:
  2894                           
  2895                           	psect	text8
  2896  0FA7                     __ptext8:	
  2897 ;; *************** function ___awmod *****************
  2898 ;; Defined at:
  2899 ;;		line 5 in file "C:\Program Files\Microchip\xc8\v2.31\pic\sources\c90\common\awmod.c"
  2900 ;; Parameters:    Size  Location     Type
  2901 ;;  divisor         2    0[COMMON] int 
  2902 ;;  dividend        2    2[COMMON] int 
  2903 ;; Auto vars:     Size  Location     Type
  2904 ;;  sign            1    6[COMMON] unsigned char 
  2905 ;;  counter         1    5[COMMON] unsigned char 
  2906 ;; Return value:  Size  Location     Type
  2907 ;;                  2    0[COMMON] int 
  2908 ;; Registers used:
  2909 ;;		wreg, status,2, status,0
  2910 ;; Tracked objects:
  2911 ;;		On entry : 0/0
  2912 ;;		On exit  : 0/0
  2913 ;;		Unchanged: 0/0
  2914 ;; Data sizes:     COMMON   BANK0   BANK1   BANK3   BANK2
  2915 ;;      Params:         4       0       0       0       0
  2916 ;;      Locals:         2       0       0       0       0
  2917 ;;      Temps:          1       0       0       0       0
  2918 ;;      Totals:         7       0       0       0       0
  2919 ;;Total ram usage:        7 bytes
  2920 ;; Hardware stack levels used:    1
  2921 ;; This function calls:
  2922 ;;		Nothing
  2923 ;; This function is called by:
  2924 ;;		_Led7_addFloatToBuffer
  2925 ;; This function uses a non-reentrant model
  2926 ;;
  2927                           
  2928                           
  2929                           ;psect for function ___awmod
  2930  0FA7                     ___awmod:
  2931  0FA7                     l1240:	
  2932                           ;incstack = 0
  2933                           ; Regs used in ___awmod: [wreg+status,2+status,0]
  2934                           
  2935  0FA7  01F6               	clrf	___awmod@sign
  2936  0FA8                     l1242:
  2937  0FA8  1FF3               	btfss	___awmod@dividend+1,7
  2938  0FA9  2FAB               	goto	u1291
  2939  0FAA  2FAC               	goto	u1290
  2940  0FAB                     u1291:
  2941  0FAB  2FB3               	goto	l1248
  2942  0FAC                     u1290:
  2943  0FAC                     l1244:
  2944  0FAC  09F2               	comf	___awmod@dividend,f
  2945  0FAD  09F3               	comf	___awmod@dividend+1,f
  2946  0FAE  0AF2               	incf	___awmod@dividend,f
  2947  0FAF  1903               	skipnz
  2948  0FB0  0AF3               	incf	___awmod@dividend+1,f
  2949  0FB1                     l1246:
  2950  0FB1  01F6               	clrf	___awmod@sign
  2951  0FB2  0AF6               	incf	___awmod@sign,f
  2952  0FB3                     l1248:
  2953  0FB3  1FF1               	btfss	___awmod@divisor+1,7
  2954  0FB4  2FB6               	goto	u1301
  2955  0FB5  2FB7               	goto	u1300
  2956  0FB6                     u1301:
  2957  0FB6  2FBC               	goto	l1252
  2958  0FB7                     u1300:
  2959  0FB7                     l1250:
  2960  0FB7  09F0               	comf	___awmod@divisor,f
  2961  0FB8  09F1               	comf	___awmod@divisor+1,f
  2962  0FB9  0AF0               	incf	___awmod@divisor,f
  2963  0FBA  1903               	skipnz
  2964  0FBB  0AF1               	incf	___awmod@divisor+1,f
  2965  0FBC                     l1252:
  2966  0FBC  0870               	movf	___awmod@divisor,w
  2967  0FBD  0471               	iorwf	___awmod@divisor+1,w
  2968  0FBE  1903               	btfsc	3,2
  2969  0FBF  2FC1               	goto	u1311
  2970  0FC0  2FC2               	goto	u1310
  2971  0FC1                     u1311:
  2972  0FC1  2FF1               	goto	l1270
  2973  0FC2                     u1310:
  2974  0FC2                     l1254:
  2975  0FC2  01F5               	clrf	___awmod@counter
  2976  0FC3  0AF5               	incf	___awmod@counter,f
  2977  0FC4  2FD0               	goto	l1260
  2978  0FC5                     l1256:
  2979  0FC5  3001               	movlw	1
  2980  0FC6                     u1325:
  2981  0FC6  1003               	clrc
  2982  0FC7  0DF0               	rlf	___awmod@divisor,f
  2983  0FC8  0DF1               	rlf	___awmod@divisor+1,f
  2984  0FC9  3EFF               	addlw	-1
  2985  0FCA  1D03               	skipz
  2986  0FCB  2FC6               	goto	u1325
  2987  0FCC                     l1258:
  2988  0FCC  3001               	movlw	1
  2989  0FCD  00F4               	movwf	??___awmod
  2990  0FCE  0874               	movf	??___awmod,w
  2991  0FCF  07F5               	addwf	___awmod@counter,f
  2992  0FD0                     l1260:
  2993  0FD0  1FF1               	btfss	___awmod@divisor+1,7
  2994  0FD1  2FD3               	goto	u1331
  2995  0FD2  2FD4               	goto	u1330
  2996  0FD3                     u1331:
  2997  0FD3  2FC5               	goto	l1256
  2998  0FD4                     u1330:
  2999  0FD4                     l1262:
  3000  0FD4  0871               	movf	___awmod@divisor+1,w
  3001  0FD5  0273               	subwf	___awmod@dividend+1,w
  3002  0FD6  1D03               	skipz
  3003  0FD7  2FDA               	goto	u1345
  3004  0FD8  0870               	movf	___awmod@divisor,w
  3005  0FD9  0272               	subwf	___awmod@dividend,w
  3006  0FDA                     u1345:
  3007  0FDA  1C03               	skipc
  3008  0FDB  2FDD               	goto	u1341
  3009  0FDC  2FDE               	goto	u1340
  3010  0FDD                     u1341:
  3011  0FDD  2FE4               	goto	l1266
  3012  0FDE                     u1340:
  3013  0FDE                     l1264:
  3014  0FDE  0870               	movf	___awmod@divisor,w
  3015  0FDF  02F2               	subwf	___awmod@dividend,f
  3016  0FE0  0871               	movf	___awmod@divisor+1,w
  3017  0FE1  1C03               	skipc
  3018  0FE2  03F3               	decf	___awmod@dividend+1,f
  3019  0FE3  02F3               	subwf	___awmod@dividend+1,f
  3020  0FE4                     l1266:
  3021  0FE4  3001               	movlw	1
  3022  0FE5                     u1355:
  3023  0FE5  1003               	clrc
  3024  0FE6  0CF1               	rrf	___awmod@divisor+1,f
  3025  0FE7  0CF0               	rrf	___awmod@divisor,f
  3026  0FE8  3EFF               	addlw	-1
  3027  0FE9  1D03               	skipz
  3028  0FEA  2FE5               	goto	u1355
  3029  0FEB                     l1268:
  3030  0FEB  3001               	movlw	1
  3031  0FEC  02F5               	subwf	___awmod@counter,f
  3032  0FED  1D03               	btfss	3,2
  3033  0FEE  2FF0               	goto	u1361
  3034  0FEF  2FF1               	goto	u1360
  3035  0FF0                     u1361:
  3036  0FF0  2FD4               	goto	l1262
  3037  0FF1                     u1360:
  3038  0FF1                     l1270:
  3039  0FF1  0876               	movf	___awmod@sign,w
  3040  0FF2  1903               	btfsc	3,2
  3041  0FF3  2FF5               	goto	u1371
  3042  0FF4  2FF6               	goto	u1370
  3043  0FF5                     u1371:
  3044  0FF5  2FFB               	goto	l1274
  3045  0FF6                     u1370:
  3046  0FF6                     l1272:
  3047  0FF6  09F2               	comf	___awmod@dividend,f
  3048  0FF7  09F3               	comf	___awmod@dividend+1,f
  3049  0FF8  0AF2               	incf	___awmod@dividend,f
  3050  0FF9  1903               	skipnz
  3051  0FFA  0AF3               	incf	___awmod@dividend+1,f
  3052  0FFB                     l1274:
  3053  0FFB  0873               	movf	___awmod@dividend+1,w
  3054  0FFC  00F1               	movwf	?___awmod+1
  3055  0FFD  0872               	movf	___awmod@dividend,w
  3056  0FFE  00F0               	movwf	?___awmod
  3057  0FFF                     l320:
  3058  0FFF  0008               	return
  3059  1000                     __end_of___awmod:
  3060                           
  3061                           	psect	text9
  3062  0037                     __ptext9:	
  3063 ;; *************** function ___awdiv *****************
  3064 ;; Defined at:
  3065 ;;		line 5 in file "C:\Program Files\Microchip\xc8\v2.31\pic\sources\c90\common\awdiv.c"
  3066 ;; Parameters:    Size  Location     Type
  3067 ;;  divisor         2    0[COMMON] int 
  3068 ;;  dividend        2    2[COMMON] int 
  3069 ;; Auto vars:     Size  Location     Type
  3070 ;;  quotient        2    7[COMMON] int 
  3071 ;;  sign            1    6[COMMON] unsigned char 
  3072 ;;  counter         1    5[COMMON] unsigned char 
  3073 ;; Return value:  Size  Location     Type
  3074 ;;                  2    0[COMMON] int 
  3075 ;; Registers used:
  3076 ;;		wreg, status,2, status,0
  3077 ;; Tracked objects:
  3078 ;;		On entry : 0/0
  3079 ;;		On exit  : 0/0
  3080 ;;		Unchanged: 0/0
  3081 ;; Data sizes:     COMMON   BANK0   BANK1   BANK3   BANK2
  3082 ;;      Params:         4       0       0       0       0
  3083 ;;      Locals:         4       0       0       0       0
  3084 ;;      Temps:          1       0       0       0       0
  3085 ;;      Totals:         9       0       0       0       0
  3086 ;;Total ram usage:        9 bytes
  3087 ;; Hardware stack levels used:    1
  3088 ;; This function calls:
  3089 ;;		Nothing
  3090 ;; This function is called by:
  3091 ;;		_Led7_addFloatToBuffer
  3092 ;; This function uses a non-reentrant model
  3093 ;;
  3094                           
  3095                           
  3096                           ;psect for function ___awdiv
  3097  0037                     ___awdiv:
  3098  0037                     l1196:	
  3099                           ;incstack = 0
  3100                           ; Regs used in ___awdiv: [wreg+status,2+status,0]
  3101                           
  3102  0037  01F6               	clrf	___awdiv@sign
  3103  0038                     l1198:
  3104  0038  1FF1               	btfss	___awdiv@divisor+1,7
  3105  0039  283B               	goto	u1191
  3106  003A  283C               	goto	u1190
  3107  003B                     u1191:
  3108  003B  2843               	goto	l1204
  3109  003C                     u1190:
  3110  003C                     l1200:
  3111  003C  09F0               	comf	___awdiv@divisor,f
  3112  003D  09F1               	comf	___awdiv@divisor+1,f
  3113  003E  0AF0               	incf	___awdiv@divisor,f
  3114  003F  1903               	skipnz
  3115  0040  0AF1               	incf	___awdiv@divisor+1,f
  3116  0041                     l1202:
  3117  0041  01F6               	clrf	___awdiv@sign
  3118  0042  0AF6               	incf	___awdiv@sign,f
  3119  0043                     l1204:
  3120  0043  1FF3               	btfss	___awdiv@dividend+1,7
  3121  0044  2846               	goto	u1201
  3122  0045  2847               	goto	u1200
  3123  0046                     u1201:
  3124  0046  2850               	goto	l1210
  3125  0047                     u1200:
  3126  0047                     l1206:
  3127  0047  09F2               	comf	___awdiv@dividend,f
  3128  0048  09F3               	comf	___awdiv@dividend+1,f
  3129  0049  0AF2               	incf	___awdiv@dividend,f
  3130  004A  1903               	skipnz
  3131  004B  0AF3               	incf	___awdiv@dividend+1,f
  3132  004C                     l1208:
  3133  004C  3001               	movlw	1
  3134  004D  00F4               	movwf	??___awdiv
  3135  004E  0874               	movf	??___awdiv,w
  3136  004F  06F6               	xorwf	___awdiv@sign,f
  3137  0050                     l1210:
  3138  0050  01F7               	clrf	___awdiv@quotient
  3139  0051  01F8               	clrf	___awdiv@quotient+1
  3140  0052                     l1212:
  3141  0052  0870               	movf	___awdiv@divisor,w
  3142  0053  0471               	iorwf	___awdiv@divisor+1,w
  3143  0054  1903               	btfsc	3,2
  3144  0055  2857               	goto	u1211
  3145  0056  2858               	goto	u1210
  3146  0057                     u1211:
  3147  0057  288F               	goto	l1232
  3148  0058                     u1210:
  3149  0058                     l1214:
  3150  0058  01F5               	clrf	___awdiv@counter
  3151  0059  0AF5               	incf	___awdiv@counter,f
  3152  005A  2866               	goto	l1220
  3153  005B                     l1216:
  3154  005B  3001               	movlw	1
  3155  005C                     u1225:
  3156  005C  1003               	clrc
  3157  005D  0DF0               	rlf	___awdiv@divisor,f
  3158  005E  0DF1               	rlf	___awdiv@divisor+1,f
  3159  005F  3EFF               	addlw	-1
  3160  0060  1D03               	skipz
  3161  0061  285C               	goto	u1225
  3162  0062                     l1218:
  3163  0062  3001               	movlw	1
  3164  0063  00F4               	movwf	??___awdiv
  3165  0064  0874               	movf	??___awdiv,w
  3166  0065  07F5               	addwf	___awdiv@counter,f
  3167  0066                     l1220:
  3168  0066  1FF1               	btfss	___awdiv@divisor+1,7
  3169  0067  2869               	goto	u1231
  3170  0068  286A               	goto	u1230
  3171  0069                     u1231:
  3172  0069  285B               	goto	l1216
  3173  006A                     u1230:
  3174  006A                     l1222:
  3175  006A  3001               	movlw	1
  3176  006B                     u1245:
  3177  006B  1003               	clrc
  3178  006C  0DF7               	rlf	___awdiv@quotient,f
  3179  006D  0DF8               	rlf	___awdiv@quotient+1,f
  3180  006E  3EFF               	addlw	-1
  3181  006F  1D03               	skipz
  3182  0070  286B               	goto	u1245
  3183  0071  0871               	movf	___awdiv@divisor+1,w
  3184  0072  0273               	subwf	___awdiv@dividend+1,w
  3185  0073  1D03               	skipz
  3186  0074  2877               	goto	u1255
  3187  0075  0870               	movf	___awdiv@divisor,w
  3188  0076  0272               	subwf	___awdiv@dividend,w
  3189  0077                     u1255:
  3190  0077  1C03               	skipc
  3191  0078  287A               	goto	u1251
  3192  0079  287B               	goto	u1250
  3193  007A                     u1251:
  3194  007A  2882               	goto	l1228
  3195  007B                     u1250:
  3196  007B                     l1224:
  3197  007B  0870               	movf	___awdiv@divisor,w
  3198  007C  02F2               	subwf	___awdiv@dividend,f
  3199  007D  0871               	movf	___awdiv@divisor+1,w
  3200  007E  1C03               	skipc
  3201  007F  03F3               	decf	___awdiv@dividend+1,f
  3202  0080  02F3               	subwf	___awdiv@dividend+1,f
  3203  0081                     l1226:
  3204  0081  1477               	bsf	___awdiv@quotient,0
  3205  0082                     l1228:
  3206  0082  3001               	movlw	1
  3207  0083                     u1265:
  3208  0083  1003               	clrc
  3209  0084  0CF1               	rrf	___awdiv@divisor+1,f
  3210  0085  0CF0               	rrf	___awdiv@divisor,f
  3211  0086  3EFF               	addlw	-1
  3212  0087  1D03               	skipz
  3213  0088  2883               	goto	u1265
  3214  0089                     l1230:
  3215  0089  3001               	movlw	1
  3216  008A  02F5               	subwf	___awdiv@counter,f
  3217  008B  1D03               	btfss	3,2
  3218  008C  288E               	goto	u1271
  3219  008D  288F               	goto	u1270
  3220  008E                     u1271:
  3221  008E  286A               	goto	l1222
  3222  008F                     u1270:
  3223  008F                     l1232:
  3224  008F  0876               	movf	___awdiv@sign,w
  3225  0090  1903               	btfsc	3,2
  3226  0091  2893               	goto	u1281
  3227  0092  2894               	goto	u1280
  3228  0093                     u1281:
  3229  0093  2899               	goto	l1236
  3230  0094                     u1280:
  3231  0094                     l1234:
  3232  0094  09F7               	comf	___awdiv@quotient,f
  3233  0095  09F8               	comf	___awdiv@quotient+1,f
  3234  0096  0AF7               	incf	___awdiv@quotient,f
  3235  0097  1903               	skipnz
  3236  0098  0AF8               	incf	___awdiv@quotient+1,f
  3237  0099                     l1236:
  3238  0099  0878               	movf	___awdiv@quotient+1,w
  3239  009A  00F1               	movwf	?___awdiv+1
  3240  009B  0877               	movf	___awdiv@quotient,w
  3241  009C  00F0               	movwf	?___awdiv
  3242  009D                     l307:
  3243  009D  0008               	return
  3244  009E                     __end_of___awdiv:
  3245                           
  3246                           	psect	text10
  3247  0226                     __ptext10:	
  3248 ;; *************** function _Led7_pointIndex *****************
  3249 ;; Defined at:
  3250 ;;		line 14 in file "led7.c"
  3251 ;; Parameters:    Size  Location     Type
  3252 ;;  num             4    0[BANK0 ] int 
  3253 ;; Auto vars:     Size  Location     Type
  3254 ;;		None
  3255 ;; Return value:  Size  Location     Type
  3256 ;;                  1    wreg      unsigned char 
  3257 ;; Registers used:
  3258 ;;		wreg, status,2, status,0, pclath, cstack
  3259 ;; Tracked objects:
  3260 ;;		On entry : 0/0
  3261 ;;		On exit  : 0/0
  3262 ;;		Unchanged: 0/0
  3263 ;; Data sizes:     COMMON   BANK0   BANK1   BANK3   BANK2
  3264 ;;      Params:         0       4       0       0       0
  3265 ;;      Locals:         0       0       0       0       0
  3266 ;;      Temps:          0       0       0       0       0
  3267 ;;      Totals:         0       4       0       0       0
  3268 ;;Total ram usage:        4 bytes
  3269 ;; Hardware stack levels used:    1
  3270 ;; Hardware stack levels required when called:    1
  3271 ;; This function calls:
  3272 ;;		___flge
  3273 ;; This function is called by:
  3274 ;;		_Led7_addFloatToBuffer
  3275 ;; This function uses a non-reentrant model
  3276 ;;
  3277                           
  3278                           
  3279                           ;psect for function _Led7_pointIndex
  3280  0226                     _Led7_pointIndex:
  3281  0226                     l1164:	
  3282                           ;incstack = 0
  3283                           ; Regs used in _Led7_pointIndex: [wreg+status,2+status,0+pclath+cstack]
  3284                           
  3285                           
  3286                           ;led7.c: 15:     if (num > 99.9 && num <= 999.9) return 1;
  3287  0226  3042               	movlw	66
  3288  0227  00F3               	movwf	___flge@ff1+3
  3289  0228  30C7               	movlw	199
  3290  0229  00F2               	movwf	___flge@ff1+2
  3291  022A  30CC               	movlw	204
  3292  022B  00F1               	movwf	___flge@ff1+1
  3293  022C  30CD               	movlw	205
  3294  022D  00F0               	movwf	___flge@ff1
  3295  022E  1283               	bcf	3,5	;RP0=0, select bank0
  3296  022F  1303               	bcf	3,6	;RP1=0, select bank0
  3297  0230  0823               	movf	Led7_pointIndex@num+3,w
  3298  0231  00F7               	movwf	___flge@ff2+3
  3299  0232  0822               	movf	Led7_pointIndex@num+2,w
  3300  0233  00F6               	movwf	___flge@ff2+2
  3301  0234  0821               	movf	Led7_pointIndex@num+1,w
  3302  0235  00F5               	movwf	___flge@ff2+1
  3303  0236  0820               	movf	Led7_pointIndex@num,w
  3304  0237  00F4               	movwf	___flge@ff2
  3305  0238  120A  118A  2184  120A  118A  	fcall	___flge
  3306  023D  1803               	btfsc	3,0
  3307  023E  2A40               	goto	u1131
  3308  023F  2A41               	goto	u1130
  3309  0240                     u1131:
  3310  0240  2A5E               	goto	l1174
  3311  0241                     u1130:
  3312  0241                     l1166:
  3313  0241  3044               	movlw	68
  3314  0242  00F3               	movwf	___flge@ff1+3
  3315  0243  3079               	movlw	121
  3316  0244  00F2               	movwf	___flge@ff1+2
  3317  0245  30F9               	movlw	249
  3318  0246  00F1               	movwf	___flge@ff1+1
  3319  0247  309A               	movlw	154
  3320  0248  00F0               	movwf	___flge@ff1
  3321  0249  1283               	bcf	3,5	;RP0=0, select bank0
  3322  024A  1303               	bcf	3,6	;RP1=0, select bank0
  3323  024B  0823               	movf	Led7_pointIndex@num+3,w
  3324  024C  00F7               	movwf	___flge@ff2+3
  3325  024D  0822               	movf	Led7_pointIndex@num+2,w
  3326  024E  00F6               	movwf	___flge@ff2+2
  3327  024F  0821               	movf	Led7_pointIndex@num+1,w
  3328  0250  00F5               	movwf	___flge@ff2+1
  3329  0251  0820               	movf	Led7_pointIndex@num,w
  3330  0252  00F4               	movwf	___flge@ff2
  3331  0253  120A  118A  2184  120A  118A  	fcall	___flge
  3332  0258  1C03               	btfss	3,0
  3333  0259  2A5B               	goto	u1141
  3334  025A  2A5C               	goto	u1140
  3335  025B                     u1141:
  3336  025B  2A5E               	goto	l1174
  3337  025C                     u1140:
  3338  025C                     l1168:
  3339  025C  3001               	movlw	1
  3340  025D  2ACF               	goto	l46
  3341  025E                     l1174:
  3342  025E  3041               	movlw	65
  3343  025F  00F3               	movwf	___flge@ff1+3
  3344  0260  301E               	movlw	30
  3345  0261  00F2               	movwf	___flge@ff1+2
  3346  0262  3066               	movlw	102
  3347  0263  00F1               	movwf	___flge@ff1+1
  3348  0264  3066               	movlw	102
  3349  0265  00F0               	movwf	___flge@ff1
  3350  0266  1283               	bcf	3,5	;RP0=0, select bank0
  3351  0267  1303               	bcf	3,6	;RP1=0, select bank0
  3352  0268  0823               	movf	Led7_pointIndex@num+3,w
  3353  0269  00F7               	movwf	___flge@ff2+3
  3354  026A  0822               	movf	Led7_pointIndex@num+2,w
  3355  026B  00F6               	movwf	___flge@ff2+2
  3356  026C  0821               	movf	Led7_pointIndex@num+1,w
  3357  026D  00F5               	movwf	___flge@ff2+1
  3358  026E  0820               	movf	Led7_pointIndex@num,w
  3359  026F  00F4               	movwf	___flge@ff2
  3360  0270  120A  118A  2184  120A  118A  	fcall	___flge
  3361  0275  1803               	btfsc	3,0
  3362  0276  2A78               	goto	u1151
  3363  0277  2A79               	goto	u1150
  3364  0278                     u1151:
  3365  0278  2A96               	goto	l1184
  3366  0279                     u1150:
  3367  0279                     l1176:
  3368  0279  3042               	movlw	66
  3369  027A  00F3               	movwf	___flge@ff1+3
  3370  027B  30C7               	movlw	199
  3371  027C  00F2               	movwf	___flge@ff1+2
  3372  027D  30CC               	movlw	204
  3373  027E  00F1               	movwf	___flge@ff1+1
  3374  027F  30CD               	movlw	205
  3375  0280  00F0               	movwf	___flge@ff1
  3376  0281  1283               	bcf	3,5	;RP0=0, select bank0
  3377  0282  1303               	bcf	3,6	;RP1=0, select bank0
  3378  0283  0823               	movf	Led7_pointIndex@num+3,w
  3379  0284  00F7               	movwf	___flge@ff2+3
  3380  0285  0822               	movf	Led7_pointIndex@num+2,w
  3381  0286  00F6               	movwf	___flge@ff2+2
  3382  0287  0821               	movf	Led7_pointIndex@num+1,w
  3383  0288  00F5               	movwf	___flge@ff2+1
  3384  0289  0820               	movf	Led7_pointIndex@num,w
  3385  028A  00F4               	movwf	___flge@ff2
  3386  028B  120A  118A  2184  120A  118A  	fcall	___flge
  3387  0290  1C03               	btfss	3,0
  3388  0291  2A93               	goto	u1161
  3389  0292  2A94               	goto	u1160
  3390  0293                     u1161:
  3391  0293  2A96               	goto	l1184
  3392  0294                     u1160:
  3393  0294                     l1178:
  3394  0294  3002               	movlw	2
  3395  0295  2ACF               	goto	l46
  3396  0296                     l1184:
  3397  0296  1283               	bcf	3,5	;RP0=0, select bank0
  3398  0297  1303               	bcf	3,6	;RP1=0, select bank0
  3399  0298  0823               	movf	Led7_pointIndex@num+3,w
  3400  0299  00F3               	movwf	___flge@ff1+3
  3401  029A  0822               	movf	Led7_pointIndex@num+2,w
  3402  029B  00F2               	movwf	___flge@ff1+2
  3403  029C  0821               	movf	Led7_pointIndex@num+1,w
  3404  029D  00F1               	movwf	___flge@ff1+1
  3405  029E  0820               	movf	Led7_pointIndex@num,w
  3406  029F  00F0               	movwf	___flge@ff1
  3407  02A0  3000               	movlw	0
  3408  02A1  00F7               	movwf	___flge@ff2+3
  3409  02A2  3000               	movlw	0
  3410  02A3  00F6               	movwf	___flge@ff2+2
  3411  02A4  3000               	movlw	0
  3412  02A5  00F5               	movwf	___flge@ff2+1
  3413  02A6  3000               	movlw	0
  3414  02A7  00F4               	movwf	___flge@ff2
  3415  02A8  120A  118A  2184  120A  118A  	fcall	___flge
  3416  02AD  1C03               	btfss	3,0
  3417  02AE  2AB0               	goto	u1171
  3418  02AF  2AB1               	goto	u1170
  3419  02B0                     u1171:
  3420  02B0  2ACE               	goto	l1192
  3421  02B1                     u1170:
  3422  02B1                     l1186:
  3423  02B1  3041               	movlw	65
  3424  02B2  00F3               	movwf	___flge@ff1+3
  3425  02B3  301E               	movlw	30
  3426  02B4  00F2               	movwf	___flge@ff1+2
  3427  02B5  3066               	movlw	102
  3428  02B6  00F1               	movwf	___flge@ff1+1
  3429  02B7  3066               	movlw	102
  3430  02B8  00F0               	movwf	___flge@ff1
  3431  02B9  1283               	bcf	3,5	;RP0=0, select bank0
  3432  02BA  1303               	bcf	3,6	;RP1=0, select bank0
  3433  02BB  0823               	movf	Led7_pointIndex@num+3,w
  3434  02BC  00F7               	movwf	___flge@ff2+3
  3435  02BD  0822               	movf	Led7_pointIndex@num+2,w
  3436  02BE  00F6               	movwf	___flge@ff2+2
  3437  02BF  0821               	movf	Led7_pointIndex@num+1,w
  3438  02C0  00F5               	movwf	___flge@ff2+1
  3439  02C1  0820               	movf	Led7_pointIndex@num,w
  3440  02C2  00F4               	movwf	___flge@ff2
  3441  02C3  120A  118A  2184  120A  118A  	fcall	___flge
  3442  02C8  1C03               	btfss	3,0
  3443  02C9  2ACB               	goto	u1181
  3444  02CA  2ACC               	goto	u1180
  3445  02CB                     u1181:
  3446  02CB  2ACE               	goto	l1192
  3447  02CC                     u1180:
  3448  02CC                     l1188:
  3449  02CC  3003               	movlw	3
  3450  02CD  2ACF               	goto	l46
  3451  02CE                     l1192:
  3452                           
  3453                           ;led7.c: 18:     return 0;
  3454  02CE  3000               	movlw	0
  3455  02CF                     l46:
  3456  02CF  0008               	return
  3457  02D0                     __end_of_Led7_pointIndex:
  3458                           
  3459                           	psect	text11
  3460  0184                     __ptext11:	
  3461 ;; *************** function ___flge *****************
  3462 ;; Defined at:
  3463 ;;		line 4 in file "C:\Program Files\Microchip\xc8\v2.31\pic\sources\c90\common\flge.c"
  3464 ;; Parameters:    Size  Location     Type
  3465 ;;  ff1             4    0[COMMON] unsigned char 
  3466 ;;  ff2             4    4[COMMON] unsigned char 
  3467 ;; Auto vars:     Size  Location     Type
  3468 ;;		None
  3469 ;; Return value:  Size  Location     Type
  3470 ;;		None               void
  3471 ;; Registers used:
  3472 ;;		wreg, status,2, status,0
  3473 ;; Tracked objects:
  3474 ;;		On entry : 0/0
  3475 ;;		On exit  : 0/0
  3476 ;;		Unchanged: 0/0
  3477 ;; Data sizes:     COMMON   BANK0   BANK1   BANK3   BANK2
  3478 ;;      Params:         8       0       0       0       0
  3479 ;;      Locals:         0       0       0       0       0
  3480 ;;      Temps:          4       0       0       0       0
  3481 ;;      Totals:        12       0       0       0       0
  3482 ;;Total ram usage:       12 bytes
  3483 ;; Hardware stack levels used:    1
  3484 ;; This function calls:
  3485 ;;		Nothing
  3486 ;; This function is called by:
  3487 ;;		_Led7_pointIndex
  3488 ;; This function uses a non-reentrant model
  3489 ;;
  3490                           
  3491                           
  3492                           ;psect for function ___flge
  3493  0184                     ___flge:
  3494  0184                     l1130:	
  3495                           ;incstack = 0
  3496                           ; Regs used in ___flge: [wreg+status,2+status,0]
  3497                           
  3498  0184  3000               	movlw	0
  3499  0185  0570               	andwf	___flge@ff1,w
  3500  0186  00F8               	movwf	??___flge
  3501  0187  3000               	movlw	0
  3502  0188  0571               	andwf	___flge@ff1+1,w
  3503  0189  00F9               	movwf	??___flge+1
  3504  018A  3080               	movlw	128
  3505  018B  0572               	andwf	___flge@ff1+2,w
  3506  018C  00FA               	movwf	??___flge+2
  3507  018D  307F               	movlw	127
  3508  018E  0573               	andwf	___flge@ff1+3,w
  3509  018F  00FB               	movwf	??___flge+3
  3510  0190  087B               	movf	??___flge+3,w
  3511  0191  047A               	iorwf	??___flge+2,w
  3512  0192  0479               	iorwf	??___flge+1,w
  3513  0193  0478               	iorwf	??___flge,w
  3514  0194  1D03               	skipz
  3515  0195  2997               	goto	u1031
  3516  0196  2998               	goto	u1030
  3517  0197                     u1031:
  3518  0197  29A0               	goto	l328
  3519  0198                     u1030:
  3520  0198                     l1132:
  3521  0198  3000               	movlw	0
  3522  0199  00F3               	movwf	___flge@ff1+3
  3523  019A  3000               	movlw	0
  3524  019B  00F2               	movwf	___flge@ff1+2
  3525  019C  3000               	movlw	0
  3526  019D  00F1               	movwf	___flge@ff1+1
  3527  019E  3000               	movlw	0
  3528  019F  00F0               	movwf	___flge@ff1
  3529  01A0                     l328:
  3530  01A0  3000               	movlw	0
  3531  01A1  0574               	andwf	___flge@ff2,w
  3532  01A2  00F8               	movwf	??___flge
  3533  01A3  3000               	movlw	0
  3534  01A4  0575               	andwf	___flge@ff2+1,w
  3535  01A5  00F9               	movwf	??___flge+1
  3536  01A6  3080               	movlw	128
  3537  01A7  0576               	andwf	___flge@ff2+2,w
  3538  01A8  00FA               	movwf	??___flge+2
  3539  01A9  307F               	movlw	127
  3540  01AA  0577               	andwf	___flge@ff2+3,w
  3541  01AB  00FB               	movwf	??___flge+3
  3542  01AC  087B               	movf	??___flge+3,w
  3543  01AD  047A               	iorwf	??___flge+2,w
  3544  01AE  0479               	iorwf	??___flge+1,w
  3545  01AF  0478               	iorwf	??___flge,w
  3546  01B0  1D03               	skipz
  3547  01B1  29B3               	goto	u1041
  3548  01B2  29B4               	goto	u1040
  3549  01B3                     u1041:
  3550  01B3  29BC               	goto	l1136
  3551  01B4                     u1040:
  3552  01B4                     l1134:
  3553  01B4  3000               	movlw	0
  3554  01B5  00F7               	movwf	___flge@ff2+3
  3555  01B6  3000               	movlw	0
  3556  01B7  00F6               	movwf	___flge@ff2+2
  3557  01B8  3000               	movlw	0
  3558  01B9  00F5               	movwf	___flge@ff2+1
  3559  01BA  3000               	movlw	0
  3560  01BB  00F4               	movwf	___flge@ff2
  3561  01BC                     l1136:
  3562  01BC  1FF3               	btfss	___flge@ff1+3,7
  3563  01BD  29BF               	goto	u1051
  3564  01BE  29C0               	goto	u1050
  3565  01BF                     u1051:
  3566  01BF  29E4               	goto	l1140
  3567  01C0                     u1050:
  3568  01C0                     l1138:
  3569  01C0  3000               	movlw	0
  3570  01C1  00F8               	movwf	??___flge
  3571  01C2  3000               	movlw	0
  3572  01C3  00F9               	movwf	??___flge+1
  3573  01C4  3000               	movlw	0
  3574  01C5  00FA               	movwf	??___flge+2
  3575  01C6  3080               	movlw	128
  3576  01C7  00FB               	movwf	??___flge+3
  3577  01C8  0870               	movf	___flge@ff1,w
  3578  01C9  02F8               	subwf	??___flge,f
  3579  01CA  0871               	movf	___flge@ff1+1,w
  3580  01CB  1C03               	skipc
  3581  01CC  0F71               	incfsz	___flge@ff1+1,w
  3582  01CD  29CF               	goto	u1061
  3583  01CE  29D0               	goto	u1062
  3584  01CF                     u1061:
  3585  01CF  02F9               	subwf	??___flge+1,f
  3586  01D0                     u1062:
  3587  01D0  0872               	movf	___flge@ff1+2,w
  3588  01D1  1C03               	skipc
  3589  01D2  0F72               	incfsz	___flge@ff1+2,w
  3590  01D3  29D5               	goto	u1063
  3591  01D4  29D6               	goto	u1064
  3592  01D5                     u1063:
  3593  01D5  02FA               	subwf	??___flge+2,f
  3594  01D6                     u1064:
  3595  01D6  0873               	movf	___flge@ff1+3,w
  3596  01D7  1C03               	skipc
  3597  01D8  0F73               	incfsz	___flge@ff1+3,w
  3598  01D9  29DB               	goto	u1065
  3599  01DA  29DC               	goto	u1066
  3600  01DB                     u1065:
  3601  01DB  02FB               	subwf	??___flge+3,f
  3602  01DC                     u1066:
  3603  01DC  087B               	movf	??___flge+3,w
  3604  01DD  00F3               	movwf	___flge@ff1+3
  3605  01DE  087A               	movf	??___flge+2,w
  3606  01DF  00F2               	movwf	___flge@ff1+2
  3607  01E0  0879               	movf	??___flge+1,w
  3608  01E1  00F1               	movwf	___flge@ff1+1
  3609  01E2  0878               	movf	??___flge,w
  3610  01E3  00F0               	movwf	___flge@ff1
  3611  01E4                     l1140:
  3612  01E4  1FF7               	btfss	___flge@ff2+3,7
  3613  01E5  29E7               	goto	u1071
  3614  01E6  29E8               	goto	u1070
  3615  01E7                     u1071:
  3616  01E7  2A0C               	goto	l331
  3617  01E8                     u1070:
  3618  01E8                     l1142:
  3619  01E8  3000               	movlw	0
  3620  01E9  00F8               	movwf	??___flge
  3621  01EA  3000               	movlw	0
  3622  01EB  00F9               	movwf	??___flge+1
  3623  01EC  3000               	movlw	0
  3624  01ED  00FA               	movwf	??___flge+2
  3625  01EE  3080               	movlw	128
  3626  01EF  00FB               	movwf	??___flge+3
  3627  01F0  0874               	movf	___flge@ff2,w
  3628  01F1  02F8               	subwf	??___flge,f
  3629  01F2  0875               	movf	___flge@ff2+1,w
  3630  01F3  1C03               	skipc
  3631  01F4  0F75               	incfsz	___flge@ff2+1,w
  3632  01F5  29F7               	goto	u1081
  3633  01F6  29F8               	goto	u1082
  3634  01F7                     u1081:
  3635  01F7  02F9               	subwf	??___flge+1,f
  3636  01F8                     u1082:
  3637  01F8  0876               	movf	___flge@ff2+2,w
  3638  01F9  1C03               	skipc
  3639  01FA  0F76               	incfsz	___flge@ff2+2,w
  3640  01FB  29FD               	goto	u1083
  3641  01FC  29FE               	goto	u1084
  3642  01FD                     u1083:
  3643  01FD  02FA               	subwf	??___flge+2,f
  3644  01FE                     u1084:
  3645  01FE  0877               	movf	___flge@ff2+3,w
  3646  01FF  1C03               	skipc
  3647  0200  0F77               	incfsz	___flge@ff2+3,w
  3648  0201  2A03               	goto	u1085
  3649  0202  2A04               	goto	u1086
  3650  0203                     u1085:
  3651  0203  02FB               	subwf	??___flge+3,f
  3652  0204                     u1086:
  3653  0204  087B               	movf	??___flge+3,w
  3654  0205  00F7               	movwf	___flge@ff2+3
  3655  0206  087A               	movf	??___flge+2,w
  3656  0207  00F6               	movwf	___flge@ff2+2
  3657  0208  0879               	movf	??___flge+1,w
  3658  0209  00F5               	movwf	___flge@ff2+1
  3659  020A  0878               	movf	??___flge,w
  3660  020B  00F4               	movwf	___flge@ff2
  3661  020C                     l331:
  3662  020C  3080               	movlw	128
  3663  020D  06F3               	xorwf	___flge@ff1+3,f
  3664  020E  3080               	movlw	128
  3665  020F  06F7               	xorwf	___flge@ff2+3,f
  3666  0210  0877               	movf	___flge@ff2+3,w
  3667  0211  0273               	subwf	___flge@ff1+3,w
  3668  0212  1D03               	skipz
  3669  0213  2A1E               	goto	u1095
  3670  0214  0876               	movf	___flge@ff2+2,w
  3671  0215  0272               	subwf	___flge@ff1+2,w
  3672  0216  1D03               	skipz
  3673  0217  2A1E               	goto	u1095
  3674  0218  0875               	movf	___flge@ff2+1,w
  3675  0219  0271               	subwf	___flge@ff1+1,w
  3676  021A  1D03               	skipz
  3677  021B  2A1E               	goto	u1095
  3678  021C  0874               	movf	___flge@ff2,w
  3679  021D  0270               	subwf	___flge@ff1,w
  3680  021E                     u1095:
  3681  021E  1803               	skipnc
  3682  021F  2A21               	goto	u1091
  3683  0220  2A22               	goto	u1090
  3684  0221                     u1091:
  3685  0221  2A24               	goto	l1146
  3686  0222                     u1090:
  3687  0222                     l1144:
  3688  0222  1003               	clrc
  3689  0223  2A25               	goto	l332
  3690  0224                     l1146:
  3691  0224  1403               	setc
  3692  0225                     l332:
  3693  0225  0008               	return
  3694  0226                     __end_of___flge:
  3695  007E                     btemp	set	126	;btemp
  3696  007E                     wtemp0	set	126
  3697                           
  3698                           	psect	config
  3699                           
  3700                           ;Config register CONFIG1 @ 0x2007
  3701                           ;	Oscillator Selection bits
  3702                           ;	FOSC = HS, HS oscillator: High-speed crystal/resonator on RA6/OSC2/CLKOUT and RA7/OSC1
      +                          /CLKIN
  3703                           ;	Watchdog Timer Enable bit
  3704                           ;	WDTE = OFF, WDT disabled and can be enabled by SWDTEN bit of the WDTCON register
  3705                           ;	Power-up Timer Enable bit
  3706                           ;	PWRTE = OFF, PWRT disabled
  3707                           ;	RE3/MCLR pin function select bit
  3708                           ;	MCLRE = OFF, RE3/MCLR pin function is digital input, MCLR internally tied to VDD
  3709                           ;	Code Protection bit
  3710                           ;	CP = OFF, Program memory code protection is disabled
  3711                           ;	Data Code Protection bit
  3712                           ;	CPD = OFF, Data memory code protection is disabled
  3713                           ;	Brown Out Reset Selection bits
  3714                           ;	BOREN = OFF, BOR disabled
  3715                           ;	Internal External Switchover bit
  3716                           ;	IESO = OFF, Internal/External Switchover mode is disabled
  3717                           ;	Fail-Safe Clock Monitor Enabled bit
  3718                           ;	FCMEN = OFF, Fail-Safe Clock Monitor is disabled
  3719                           ;	Low Voltage Programming Enable bit
  3720                           ;	LVP = OFF, RB3 pin has digital I/O, HV on MCLR must be used for programming
  3721                           ;	In-Circuit Debugger Mode bit
  3722                           ;	DEBUG = 0x1, unprogrammed default
  3723  2007                     	org	8199
  3724  2007  20D2               	dw	8402
  3725                           
  3726                           ;Config register CONFIG2 @ 0x2008
  3727                           ;	Brown-out Reset Selection bit
  3728                           ;	BOR4V = BOR40V, Brown-out Reset set to 4.0V
  3729                           ;	Flash Program Memory Self Write Enable bits
  3730                           ;	WRT = OFF, Write protection off
  3731  2008                     	org	8200
  3732  2008  3FFF               	dw	16383

Data Sizes:
    Strings     0
    Constant    20
    Data        0
    BSS         4
    Persistent  2
    Stack       0

Auto Spaces:
    Space          Size  Autos    Used
    COMMON           14     14      14
    BANK0            80     50      56
    BANK1            80      0       0
    BANK3            96      0       0
    BANK2            96      0       0

Pointer List with Targets:

    None.

Critical Paths under _main in COMMON

    _main->___xxtofl
    _Led7_display->___xxtofl
    _Led7_addFloatToBuffer->___flmul
    ___fltol->___flmul
    ___flmul->__Umul8_16
    _Led7_pointIndex->___flge

Critical Paths under _main in BANK0

    _main->_Led7_display
    _Led7_display->_Led7_addFloatToBuffer
    _Led7_addFloatToBuffer->___fltol
    ___fltol->___flmul

Critical Paths under _main in BANK1

    None.

Critical Paths under _main in BANK3

    None.

Critical Paths under _main in BANK2

    None.

Call Graph Tables:

 ---------------------------------------------------------------------------------
 (Depth) Function   	        Calls       Base Space   Used Autos Params    Refs
 ---------------------------------------------------------------------------------
 (0) _main                                                 2     2      0    6388
                                             48 BANK0      2     2      0
                       _Led7_display
                           ___xxtofl
 ---------------------------------------------------------------------------------
 (1) ___xxtofl                                            14    10      4     398
                                              0 COMMON    14    10      4
 ---------------------------------------------------------------------------------
 (1) _Led7_display                                         6     2      4    5990
                                             42 BANK0      6     2      4
              _Led7_addFloatToBuffer
                   _Led7_displayUnit
                           ___xxtofl (ARG)
 ---------------------------------------------------------------------------------
 (3) _Led7_displayUnit                                     1     1      0      22
                                              0 COMMON     1     1      0
 ---------------------------------------------------------------------------------
 (2) _Led7_addFloatToBuffer                               10     6      4    5870
                                             32 BANK0     10     6      4
                    _Led7_pointIndex
                            ___awdiv
                            ___awmod
                            ___flmul
                            ___fltol
 ---------------------------------------------------------------------------------
 (3) ___fltol                                             11     7      4     533
                                             21 BANK0     11     7      4
                            ___flmul (ARG)
 ---------------------------------------------------------------------------------
 (3) ___flmul                                             26    18      8    2721
                                              9 COMMON     5     5      0
                                              0 BANK0     21    13      8
                          __Umul8_16
 ---------------------------------------------------------------------------------
 (4) __Umul8_16                                            9     7      2     799
                                              0 COMMON     9     7      2
 ---------------------------------------------------------------------------------
 (3) ___awmod                                              7     3      4     448
                                              0 COMMON     7     3      4
 ---------------------------------------------------------------------------------
 (3) ___awdiv                                              9     5      4     452
                                              0 COMMON     9     5      4
 ---------------------------------------------------------------------------------
 (3) _Led7_pointIndex                                      4     0      4    1302
                                              0 BANK0      4     0      4
                             ___flge
 ---------------------------------------------------------------------------------
 (4) ___flge                                              12     4      8    1094
                                              0 COMMON    12     4      8
 ---------------------------------------------------------------------------------
 Estimated maximum stack depth 4
 ---------------------------------------------------------------------------------

 Call Graph Graphs:

 _main (ROOT)
   _Led7_display
     _Led7_addFloatToBuffer
       _Led7_pointIndex
         ___flge
       ___awdiv
       ___awmod
       ___flmul
         __Umul8_16
       ___fltol
         ___flmul (ARG)
           __Umul8_16
     _Led7_displayUnit
     ___xxtofl (ARG)
   ___xxtofl

 Address spaces:
Name               Size   Autos  Total    Cost      Usage
BITCOMMON            E      0       0       0        0.0%
EEDATA             100      0       0       0        0.0%
NULL                 0      0       0       0        0.0%
CODE                 0      0       0       0        0.0%
COMMON               E      E       E       1      100.0%
BITSFR0              0      0       0       1        0.0%
SFR0                 0      0       0       1        0.0%
BITSFR1              0      0       0       2        0.0%
SFR1                 0      0       0       2        0.0%
STACK                0      0       0       2        0.0%
ABS                  0      0      46       3        0.0%
BITBANK0            50      0       0       4        0.0%
BITSFR3              0      0       0       4        0.0%
SFR3                 0      0       0       4        0.0%
BANK0               50     32      38       5       70.0%
BITSFR2              0      0       0       5        0.0%
SFR2                 0      0       0       5        0.0%
BITBANK1            50      0       0       6        0.0%
BANK1               50      0       0       7        0.0%
BITBANK3            60      0       0       8        0.0%
BANK3               60      0       0       9        0.0%
BITBANK2            60      0       0      10        0.0%
BANK2               60      0       0      11        0.0%
DATA                 0      0      46      12        0.0%


Microchip Technology PIC Macro Assembler V2.31 build 20201012212115 
Symbol Table                                                                                   Sun Jan 24 17:30:16 2021

                             pc 0002                              l53 000F                              l46 02CF  
                            l65 0494                              l59 0449                              l68 0107  
                  ___awdiv@sign 0076                              fsr 0004             __Umul8_16@word_mpld 0076  
                           l320 0FFF                             l331 020C                             l307 009D  
                           l332 0225                             l340 0183                             l350 0183  
                           l328 01A0                             l600 0353                             l601 035F  
                           l347 016E                             l543 07F5                             l562 0024  
                           l555 07E9                             l564 0036                             l549 0761  
                           l593 0337                             l587 02F2                             l589 0389  
                           _RD0 0040                             _RD1 0041                             _RD2 0042  
                           _RD3 0043                             _cnt 0056                             fsr0 0004  
                           indf 0000                    ___awmod@sign 0076                    ___flmul@aexp 002D  
                  ___flmul@bexp 002E                    ___flmul@sign 0028                    ___flmul@temp 0033  
                  ___flmul@prod 002F                    ___fltol@exp1 003F                            l1200 003C  
                          l1130 0184                            l1210 0050                            l1202 0041  
                          l1140 01E4                            l1132 0198                            l1220 0066  
                          l1212 0052                            l1204 0043                            l1300 014A  
                          l1142 01E8                            l1134 01B4                            l1230 0089  
                          l1222 006A                            l1214 0058                            l1206 0047  
                          l1150 0011                            l1310 0173                            l1302 015C  
                          l1144 0222                            l1136 01BC                            l1224 007B  
                          l1216 005B                            l1232 008F                            l1208 004C  
                          l1240 0FA7                            l1160 0032                            l1152 0013  
                          l1400 0724                            l1320 04A6                            l1312 0178  
                          l1146 0224                            l1138 01C0                            l1234 0094  
                          l1226 0081                            l1218 0062                            l1250 0FB7  
                          l1242 0FA8                            l1154 001A                            l1402 072D  
                          l1410 0741                            l1330 04BB                            l1322 04A7  
                          l1314 0495                            l1164 0226                            l1236 0099  
                          l1228 0082                            l1260 0FD0                            l1252 0FBC  
                          l1244 0FAC                            l1156 001E                            l1412 0745  
                          l1404 0731                            l1340 04D3                            l1332 04C3  
                          l1324 04AC                            l1316 049C                            l1308 0163  
                          l1500 00C5                            l1166 0241                            l1174 025E  
                          l1262 0FD4                            l1254 0FC2                            l1270 0FF1  
                          l1246 0FB1                            l1158 002D                            l1430 0796  
                          l1422 0766                            l1414 0746                            l1406 0732  
                          l1350 04EF                            l1342 04D8                            l1334 04C8  
                          l1326 04B1                            l1318 04A2                            l1510 00E1  
                          l1502 00CB                            l1192 02CE                            l1176 0279  
                          l1184 0296                            l1168 025C                            l1272 0FF6  
                          l1264 0FDE                            l1256 0FC5                            l1248 0FB3  
                          l1440 07CD                            l1424 076B                            l1432 079C  
                          l1416 074A                            l1408 073B                            l1360 0512  
                          l1352 04F4                            l1344 04DD                            l1336 04CE  
                          l1328 04B9                            l1280 0115                            l1520 00FA  
                          l1512 00E4                            l1504 00CE                            l1186 02B1  
                          l1178 0294                            l1274 0FFB                            l1266 0FE4  
                          l1258 0FCC                            l1450 07ED                            l1442 07CF  
                          l1434 07A9                            l1426 0779                            l1418 075E  
                          l1370 05A0                            l1362 051F                            l1354 04F9  
                          l1346 04E5                            l1338 04D2                            l1290 013C  
                          l1522 0104                            l1514 00EE                            l1506 00D8  
                          l1530 02EA                            l1188 02CC                            l1196 0037  
                          l1268 0FEB                            l1444 07DD                            l1436 07B4  
                          l1428 077D                            l1380 0602                            l1372 05BC  
                          l1364 053C                            l1348 04E7                            l1292 013E  
                          l1284 011E                            l1460 03A3                            l1516 00F1  
                          l1508 00DB                            l1540 0315                            l1532 02FA  
                          l1524 02D1                            l1198 0038                            l1446 07E1  
                          l1438 07C3                            l1390 0692                            l1382 061F  
                          l1374 05C5                            l1366 0558                            l1358 0502  
                          l1294 0142                            l1286 0133                            l1278 0108  
                          l1470 0418                            l1462 03B7                            l1454 0004  
                          l1518 00F7                            l1550 0349                            l1542 031C  
                          l1526 02D6                            l1448 07E2                            l1392 06BF  
                          l1384 0638                            l1376 05D5                            l1368 0584  
                          l1288 0134                            l1480 044B                            l1472 041E  
                          l1464 03BC                            l1456 038A                            l1560 037C  
                          l1552 034D                            l1544 0320                            l1536 0303  
                          l1528 02DA                            l1394 06E5                            l1386 0655  
                          l1378 05F2                            l1482 0464                            l1466 03E7  
                          l1474 0449                            l1458 039E                            l1490 009E  
                          l1562 0380                            l1554 0357                            l1546 032E  
                          l1538 0308                            l1570 0F62                            l1396 070D  
                          l1388 0682                            l1484 0477                            l1468 03ED  
                          l1492 00AD                            l1564 0381                            l1556 0361  
                          l1548 033E                            l1580 0F81                            l1572 0F64  
                          l1398 0716                            l1486 047D                            l1494 00B5  
                          l1558 0377                            l1582 0F88                            l1574 0F69  
                          l1488 048A                            l1496 00B8                            l1576 0F71  
                          l1568 0F5C                            l1498 00C2                            l1578 0F7A  
                          u1100 001E                            u1101 001D                            u1030 0198  
                          u1031 0197                            u1040 01B4                            u1200 0047  
                          u1120 0032                            u2000 0357                            u1041 01B3  
                          u1201 0046                            u1121 0031                            u2001 0356  
                          u1050 01C0                            u1130 0241                            u1210 0058  
                          u2010 036C                            u1051 01BF                            u1131 0240  
                          u1211 0057                            u1115 0025                            u1140 025C  
                          u1300 0FB7                            u2020 037C                            u1061 01CF  
                          u1141 025B                            u1301 0FB6                            u2021 037B  
                          u1070 01E8                            u1062 01D0                            u1150 0279  
                          u1230 006A                            u1310 0FC2                            u2030 0380  
                          u1071 01E7                            u1063 01D5                            u1151 0278  
                          u1231 0069                            u1311 0FC1                            u2031 037F  
                          u2015 0367                            u1064 01D6                            u1160 0294  
                          u1400 0142                            u1081 01F7                            u1065 01DB  
                          u1161 0293                            u1225 005C                            u1401 0141  
                          u1090 0222                            u1082 01F8                            u1066 01DC  
                          u1170 02B1                            u1250 007B                            u1330 0FD4  
                          u1410 0149                            u1091 0221                            u1083 01FD  
                          u1171 02B0                            u1251 007A                            u1331 0FD3  
                          u1411 0148                            u1084 01FE                            u1180 02CC  
                          u1340 0FDE                            u1500 04B1                            u1085 0203  
                          u1181 02CB                            u1245 006B                            u1341 0FDD  
                          u1325 0FC6                            u1501 04B0                            u2045 0F7B  
                          u1086 0204                            u1270 008F                            u1190 003C  
                          u1510 04D2                            u1430 015B                            u1095 021E  
                          u1271 008E                            u1255 0077                            u1191 003B  
                          u1511 04D1                            u1431 015A                            u1280 0094  
                          u1360 0FF1                            u1520 04D8                            u1440 0162  
                          u1281 0093                            u1265 0083                            u1361 0FF0  
                          u1345 0FDA                            u1521 04D7                            u1441 0161  
                          u1425 014B                            u2057 00BE                            u1370 0FF6  
                          u1290 0FAC                            u1530 04DD                            u1371 0FF5  
                          u1355 0FE5                            u1291 0FAB                            u1611 05E4  
                          u1531 04DC                            u2067 00D4                            u1612 05EB  
                          u1540 04F4                            u1460 0173                            u1380 0115  
                          u1701 06FF                            u1621 0611                            u1613 05F2  
                          u1605 05BE                            u1541 04F3                            u1461 0172  
                          u1381 0114                            u2077 00EA                            u1702 0706  
                          u1622 0618                            u1550 04F9                            u1470 0178  
                          u1390 012C                            u1703 070D                            u1623 061F  
                          u1551 04F8                            u1471 0177                            u1455 0165  
                          u2087 0100                            u1800 077D                            u1480 04A6  
                          u1801 077C                            u1641 0647                            u1561 054A  
                          u1481 04A5                            u1810 078C                            u1730 0731  
                          u1642 064E                            u1562 0551                            u1490 04AC  
                          u1731 0730                            u1715 070F                            u1651 0674  
                          u1643 0655                            u1635 0621                            u1571 0566  
                          u1563 0558                            u1491 04AB                            u1395 0127  
                          u1820 07A9                            u1652 067B                            u1572 056D  
                          u1900 02D6                            u1821 07A8                            u1725 0726  
                          u1661 06A1                            u1653 0682                            u1581 0592  
                          u1573 0574                            u1901 02D5                            u1830 07C3  
                          u1750 0745                            u1670 06CB                            u1662 06A8  
                          u1582 0599                            u1910 02DA                            u1831 07C2  
                          u1815 0787                            u1751 0744                            u1663 06AF  
                          u1591 05AE                            u1583 05A0                            u1911 02D9  
                          u1840 07E1                            u1760 074A                            u1592 05B5  
                          u1920 02FA                            u1841 07E0                            u1825 07A5  
                          u1761 0749                            u1745 0734                            u1681 06D7  
                          u1593 05BC                            u1921 02F9                            u1770 075E  
                          u1690 06F3                            u1682 06DE                            u1850 03A3  
                          u1835 07BF                            u1771 075D                            u1683 06E5  
                          u1675 06C6                            u1851 03A2                            u1780 0765  
                          u1860 03BC                            u1940 031B                            u1781 0764  
                          u1861 03BB                            u1941 031A                            u1790 076B  
                          u1870 03ED                            u1791 076A                            u1695 06EE  
                          u1871 03EC                            u1935 030D                            u1880 041E  
                          u1960 033D                            u1881 041D                            u1961 033C  
                          u1890 048A                            u1891 0489                            u1955 032F  
                          u1980 034D                            u1981 034C                            u1990 0353  
                          u1895 0486                            u1991 0352                            u1975 0342  
                          _main 0F5C                            btemp 007E                            start 0000  
              __end_of_LED7_HEX 081A                ?_Led7_pointIndex 0020                   ___fltol@sign1 003E  
                         ?_main 0070                 __end_of___awdiv 009E                 __end_of___awmod 1000  
               __end_of___flmul 07F6                 __end_of___fltol 0184                 ___awdiv@divisor 0070  
               ___awdiv@counter 0075                           _TMR1H 000F                           _TMR1L 000E  
                         _PORTB 0006                           _TRISB 0086                           _TRISD 0088  
                         pclath 000A                           status 0003                           wtemp0 007E  
       ??_Led7_addFloatToBuffer 0044                 __initialization 07F6                    __end_of_main 0FA7  
                        ??_main 0050           __size_of_Led7_display 006A                          _ADCON1 009F  
              ___awdiv@dividend 0072                          _TRISC0 0438                __end_of___xxtofl 038A  
                        ___flge 0184                       ??___awdiv 0074                       ??___awmod 0074  
                     ??___flmul 0079                       ??___fltol 0039                          _buffer 0052  
              ___awdiv@quotient 0077                 ___awmod@divisor 0070                    _Led7_display 009E  
               ___awmod@counter 0075              __size_of__Umul8_16 0027          Led7_addFloatToBuffer@i 0047  
        Led7_addFloatToBuffer@p 0049                      ___flge@ff1 0070                      ___flge@ff2 0074  
                  ___xxtofl@arg 007A                    ___xxtofl@exp 0079                    ___xxtofl@val 0070  
       __end_of__initialization 07FC       __size_of_Led7_displayUnit 000D          Led7_displayUnit@number 0070  
                    ___fltol@f1 0035                  __pcstackCOMMON 0070                      __pbssBANK0 0052  
             __end_of__Umul8_16 0037                      __pmaintext 0F5C                         ?___flge 0070  
                     ?___xxtofl 0070                      __stringtab 0800  __size_of_Led7_addFloatToBuffer 010B  
 __end_of_Led7_addFloatToBuffer 0495                 __size_of___flge 00A2                         ___awdiv 0037  
                       ___awmod 0FA7                         ___flmul 0495                         ___fltol 0108  
                       __ptext1 02D0                         __ptext2 009E                         __ptext3 0003  
                       __ptext4 038A                         __ptext5 0108                         __ptext6 0495  
                       __ptext7 0010                         __ptext8 0FA7                         __ptext9 0037  
                     _T1CONbits 0010                      ??___xxtofl 0074                ___awmod@dividend 0072  
      __size_of_Led7_pointIndex 00AA            end_of_initialization 07FC                _Led7_displayUnit 0003  
                 ___xxtofl@sign 0078                     ___flmul@grs 0029                 Led7_display@num 004A  
                __end_of___flge 0226             start_initialization 07F6               ??_Led7_pointIndex 007C  
                      ??___flge 0078                       __Umul8_16 0010                       ___flmul@a 0024  
                     ___flmul@b 0020                       ___latbits 0002                   __pcstackBANK0 0020  
             __size_of___xxtofl 00BA                       __pnvBANK0 0056                        ?___awdiv 0070  
                      ?___awmod 0070                        ?___flmul 0020                        ?___fltol 0035  
                    ?__Umul8_16 0070                       __pstrings 0800        __end_of_Led7_displayUnit 0010  
                      _LED7_HEX 0806     Led7_addFloatToBuffer@newNum 0045           _Led7_addFloatToBuffer 038A  
                 ?_Led7_display 004A                     __stringbase 0805                     ??__Umul8_16 0072  
                ??_Led7_display 004E                __size_of___awdiv 0067                __size_of___awmod 0059  
              __size_of___flmul 0361                __size_of___fltol 007C              __end_of__stringtab 0806  
               _Led7_pointIndex 0226                        ___xxtofl 02D0                        __ptext10 0226  
                      __ptext11 0184                   __size_of_main 004B          ?_Led7_addFloatToBuffer 0040  
            Led7_pointIndex@num 0020                       stringcode 0800         __end_of_Led7_pointIndex 02D0  
        __Umul8_16@multiplicand 0070               ?_Led7_displayUnit 0070                        stringdir 0800  
            ??_Led7_displayUnit 0070                        stringtab 0800        Led7_addFloatToBuffer@num 0040  
          __end_of_Led7_display 0108            __Umul8_16@multiplier 0078               __Umul8_16@product 0074  
