

Microchip MPLAB XC8 Assembler V2.31 build 20201012212115 
                                                                                               Thu Jan 28 22:04:49 2021

Microchip MPLAB XC8 C Compiler v2.31 (Free license) build 20201012212115 Og1 
     1                           	processor	16F887
     2                           	pagewidth 120
     3                           	opt	flic
     4                           	psect	idataBANK1,global,class=CODE,delta=2,noexec
     5                           	psect	cinit,global,class=CODE,merge=1,delta=2
     6                           	psect	dataBANK1,global,class=BANK1,space=1,delta=1,noexec
     7                           	psect	cstackBANK1,global,class=BANK1,space=1,delta=1,noexec
     8                           	psect	cstackCOMMON,global,class=COMMON,space=1,delta=1,noexec
     9                           	psect	cstackBANK0,global,class=BANK0,space=1,delta=1,noexec
    10                           	psect	maintext,global,class=CODE,split=1,delta=2
    11                           	psect	text1,local,class=CODE,merge=1,delta=2
    12                           	psect	text2,local,class=CODE,merge=1,delta=2,group=1
    13                           	psect	text3,local,class=CODE,merge=1,delta=2,group=1
    14                           	psect	text4,local,class=CODE,merge=1,delta=2,group=1
    15                           	psect	text5,local,class=CODE,merge=1,delta=2,group=1
    16                           	psect	text6,local,class=CODE,merge=1,delta=2
    17                           	psect	text7,local,class=CODE,merge=1,delta=2,group=1
    18                           	psect	text8,local,class=CODE,merge=1,delta=2
    19                           	psect	text9,local,class=CODE,merge=1,delta=2,group=1
    20                           	psect	text10,local,class=CODE,merge=1,delta=2
    21                           	psect	config,global,abs,ovrld,class=CONFIG,space=4,delta=2,noexec
    22                           	dabs	1,0x7E,2
    23  0000                     
    24                           ; Version 2.20
    25                           ; Generated 12/02/2020 GMT
    26                           ; 
    27                           ; Copyright © 2020, Microchip Technology Inc. and its subsidiaries ("Microchip")
    28                           ; All rights reserved.
    29                           ; 
    30                           ; This software is developed by Microchip Technology Inc. and its subsidiaries ("Microch
      +                          ip").
    31                           ; 
    32                           ; Redistribution and use in source and binary forms, with or without modification, are
    33                           ; permitted provided that the following conditions are met:
    34                           ; 
    35                           ;     1. Redistributions of source code must retain the above copyright notice, this lis
      +                          t of
    36                           ;        conditions and the following disclaimer.
    37                           ; 
    38                           ;     2. Redistributions in binary form must reproduce the above copyright notice, this 
      +                          list
    39                           ;        of conditions and the following disclaimer in the documentation and/or other
    40                           ;        materials provided with the distribution.
    41                           ; 
    42                           ;     3. Microchip's name may not be used to endorse or promote products derived from th
      +                          is
    43                           ;        software without specific prior written permission.
    44                           ; 
    45                           ; THIS SOFTWARE IS PROVIDED BY MICROCHIP "AS IS" AND ANY EXPRESS OR IMPLIED WARRANTIES,
    46                           ; INCLUDING, BUT NOT LIMITED TO, THE IMPLIED WARRANTIES OF MERCHANTABILITY AND FITNESS F
      +                          OR
    47                           ; PURPOSE ARE DISCLAIMED.  IN NO EVENT SHALL MICROCHIP BE LIABLE FOR ANY DIRECT, INDIREC
      +                          T,
    48                           ; INCIDENTAL, SPECIAL, EXEMPLARY, OR CONSEQUENTIAL DAMAGES (INCLUDING BUT NOT LIMITED TO
    49                           ; PROCUREMENT OF SUBSTITUTE GOODS OR SERVICES; LOSS OF USE, DATA OR PROFITS; OR BUSINESS
    50                           ; INTERRUPTION) HOWSOEVER CAUSED AND ON ANY THEORY OF LIABILITY, WHETHER IN CONTRACT, ST
      +                          RICT
    51                           ; LIABILITY, OR TORT (INCLUDING NEGLIGENCE OR OTHERWISE) ARISING IN ANY WAY OUT OF THE U
      +                          SE OF
    52                           ; THIS SOFTWARE, EVEN IF ADVISED OF THE POSSIBILITY OF SUCH DAMAGE.
    53                           ; 
    54                           ; 
    55                           ; Code-generator required, PIC16F887 Definitions
    56                           ; 
    57                           ; SFR Addresses
    58  0000                     	;# 
    59  0001                     	;# 
    60  0002                     	;# 
    61  0003                     	;# 
    62  0004                     	;# 
    63  0005                     	;# 
    64  0006                     	;# 
    65  0007                     	;# 
    66  0008                     	;# 
    67  0009                     	;# 
    68  000A                     	;# 
    69  000B                     	;# 
    70  000C                     	;# 
    71  000D                     	;# 
    72  000E                     	;# 
    73  000E                     	;# 
    74  000F                     	;# 
    75  0010                     	;# 
    76  0011                     	;# 
    77  0012                     	;# 
    78  0013                     	;# 
    79  0014                     	;# 
    80  0015                     	;# 
    81  0015                     	;# 
    82  0016                     	;# 
    83  0017                     	;# 
    84  0018                     	;# 
    85  0019                     	;# 
    86  001A                     	;# 
    87  001B                     	;# 
    88  001B                     	;# 
    89  001C                     	;# 
    90  001D                     	;# 
    91  001E                     	;# 
    92  001F                     	;# 
    93  0081                     	;# 
    94  0085                     	;# 
    95  0086                     	;# 
    96  0087                     	;# 
    97  0088                     	;# 
    98  0089                     	;# 
    99  008C                     	;# 
   100  008D                     	;# 
   101  008E                     	;# 
   102  008F                     	;# 
   103  0090                     	;# 
   104  0091                     	;# 
   105  0092                     	;# 
   106  0093                     	;# 
   107  0093                     	;# 
   108  0093                     	;# 
   109  0094                     	;# 
   110  0095                     	;# 
   111  0096                     	;# 
   112  0097                     	;# 
   113  0098                     	;# 
   114  0099                     	;# 
   115  009A                     	;# 
   116  009B                     	;# 
   117  009C                     	;# 
   118  009D                     	;# 
   119  009E                     	;# 
   120  009F                     	;# 
   121  0105                     	;# 
   122  0107                     	;# 
   123  0108                     	;# 
   124  0109                     	;# 
   125  010C                     	;# 
   126  010C                     	;# 
   127  010D                     	;# 
   128  010E                     	;# 
   129  010F                     	;# 
   130  0185                     	;# 
   131  0187                     	;# 
   132  0188                     	;# 
   133  0189                     	;# 
   134  018C                     	;# 
   135  018D                     	;# 
   136  0000                     	;# 
   137  0001                     	;# 
   138  0002                     	;# 
   139  0003                     	;# 
   140  0004                     	;# 
   141  0005                     	;# 
   142  0006                     	;# 
   143  0007                     	;# 
   144  0008                     	;# 
   145  0009                     	;# 
   146  000A                     	;# 
   147  000B                     	;# 
   148  000C                     	;# 
   149  000D                     	;# 
   150  000E                     	;# 
   151  000E                     	;# 
   152  000F                     	;# 
   153  0010                     	;# 
   154  0011                     	;# 
   155  0012                     	;# 
   156  0013                     	;# 
   157  0014                     	;# 
   158  0015                     	;# 
   159  0015                     	;# 
   160  0016                     	;# 
   161  0017                     	;# 
   162  0018                     	;# 
   163  0019                     	;# 
   164  001A                     	;# 
   165  001B                     	;# 
   166  001B                     	;# 
   167  001C                     	;# 
   168  001D                     	;# 
   169  001E                     	;# 
   170  001F                     	;# 
   171  0081                     	;# 
   172  0085                     	;# 
   173  0086                     	;# 
   174  0087                     	;# 
   175  0088                     	;# 
   176  0089                     	;# 
   177  008C                     	;# 
   178  008D                     	;# 
   179  008E                     	;# 
   180  008F                     	;# 
   181  0090                     	;# 
   182  0091                     	;# 
   183  0092                     	;# 
   184  0093                     	;# 
   185  0093                     	;# 
   186  0093                     	;# 
   187  0094                     	;# 
   188  0095                     	;# 
   189  0096                     	;# 
   190  0097                     	;# 
   191  0098                     	;# 
   192  0099                     	;# 
   193  009A                     	;# 
   194  009B                     	;# 
   195  009C                     	;# 
   196  009D                     	;# 
   197  009E                     	;# 
   198  009F                     	;# 
   199  0105                     	;# 
   200  0107                     	;# 
   201  0108                     	;# 
   202  0109                     	;# 
   203  010C                     	;# 
   204  010C                     	;# 
   205  010D                     	;# 
   206  010E                     	;# 
   207  010F                     	;# 
   208  0185                     	;# 
   209  0187                     	;# 
   210  0188                     	;# 
   211  0189                     	;# 
   212  018C                     	;# 
   213  018D                     	;# 
   214                           
   215                           	psect	idataBANK1
   216  0006                     __pidataBANK1:
   217                           
   218                           ;initializer for _PWM_freq
   219  0006  3488               	retlw	136
   220  0007  3413               	retlw	19
   221  0008  3400               	retlw	0
   222  0009  3400               	retlw	0
   223  001E                     _ADRESH	set	30
   224  001F                     _ADCON0	set	31
   225  0015                     _CCPR1L	set	21
   226  00F9                     _GO_nDONE	set	249
   227  00BC                     _CCP1Y	set	188
   228  00BD                     _CCP1X	set	189
   229  0092                     _TMR2ON	set	146
   230  0091                     _T2CKPS1	set	145
   231  0090                     _T2CKPS0	set	144
   232  00BA                     _CCP1M2	set	186
   233  00BB                     _CCP1M3	set	187
   234  0085                     _TRISA	set	133
   235  009E                     _ADRESL	set	158
   236  009F                     _ADCON1	set	159
   237  0092                     _PR2	set	146
   238  043A                     _TRISC2	set	1082
   239                           
   240                           	psect	cinit
   241  07E2                     start_initialization:	
   242                           ; #config settings
   243                           
   244  07E2                     __initialization:
   245                           
   246                           ; Initialize objects allocated to BANK1
   247  07E2  1683               	bsf	3,5	;RP0=1, select bank1
   248  07E3  1303               	bcf	3,6	;RP1=0, select bank1
   249  07E4  120A  118A  2006  120A  118A  	fcall	__pidataBANK1	;fetch initializer
   250  07E9  00AE               	movwf	__pdataBANK1& (0+127)
   251  07EA  120A  118A  2007  120A  118A  	fcall	__pidataBANK1+1	;fetch initializer
   252  07EF  00AF               	movwf	(__pdataBANK1+1)& (0+127)
   253  07F0  120A  118A  2008  120A  118A  	fcall	__pidataBANK1+2	;fetch initializer
   254  07F5  00B0               	movwf	(__pdataBANK1+2)& (0+127)
   255  07F6  120A  118A  2009  120A  118A  	fcall	__pidataBANK1+3	;fetch initializer
   256  07FB  00B1               	movwf	(__pdataBANK1+3)& (0+127)
   257  07FC                     end_of_initialization:	
   258                           ;End of C runtime variable initialization code
   259                           
   260  07FC                     __end_of__initialization:
   261  07FC  0183               	clrf	3
   262  07FD  120A  158A  2F96   	ljmp	_main	;jump to C main() function
   263                           
   264                           	psect	dataBANK1
   265  00AE                     __pdataBANK1:
   266  00AE                     _PWM_freq:
   267  00AE                     	ds	4
   268                           
   269                           	psect	cstackBANK1
   270  00A0                     __pcstackBANK1:
   271  00A0                     ?_PWM_dutyCycle:
   272  00A0                     PWM_dutyCycle@duty:	
   273                           ; 1 bytes @ 0x0
   274                           
   275                           
   276                           ; 2 bytes @ 0x0
   277  00A0                     	ds	2
   278  00A2                     ??_PWM_dutyCycle:
   279                           
   280                           ; 1 bytes @ 0x2
   281  00A2                     	ds	4
   282  00A6                     ??_main:
   283                           
   284                           ; 1 bytes @ 0x6
   285  00A6                     	ds	2
   286  00A8                     main@adc_value:
   287                           
   288                           ; 4 bytes @ 0x8
   289  00A8                     	ds	4
   290  00AC                     _main$669:
   291                           
   292                           ; 2 bytes @ 0xC
   293  00AC                     	ds	2
   294                           
   295                           	psect	cstackCOMMON
   296  0070                     __pcstackCOMMON:
   297  0070                     ?_PWM1_Init:
   298  0070                     ?_ADC_Init:	
   299                           ; 1 bytes @ 0x0
   300                           
   301  0070                     ??_ADC_Init:	
   302                           ; 1 bytes @ 0x0
   303                           
   304  0070                     ?_main:	
   305                           ; 1 bytes @ 0x0
   306                           
   307  0070                     ?__Umul8_16:	
   308                           ; 1 bytes @ 0x0
   309                           
   310  0070                     ?___aldiv:	
   311                           ; 2 bytes @ 0x0
   312                           
   313  0070                     __Umul8_16@multiplicand:	
   314                           ; 4 bytes @ 0x0
   315                           
   316  0070                     ___aldiv@divisor:	
   317                           ; 1 bytes @ 0x0
   318                           
   319                           
   320                           ; 4 bytes @ 0x0
   321  0070                     	ds	2
   322  0072                     ??__Umul8_16:
   323                           
   324                           ; 1 bytes @ 0x2
   325  0072                     	ds	2
   326  0074                     __Umul8_16@product:
   327  0074                     ___aldiv@dividend:	
   328                           ; 2 bytes @ 0x4
   329                           
   330                           
   331                           ; 4 bytes @ 0x4
   332  0074                     	ds	2
   333  0076                     __Umul8_16@word_mpld:
   334                           
   335                           ; 2 bytes @ 0x6
   336  0076                     	ds	2
   337  0078                     ??___aldiv:
   338  0078                     __Umul8_16@multiplier:	
   339                           ; 1 bytes @ 0x8
   340                           
   341                           
   342                           ; 1 bytes @ 0x8
   343  0078                     	ds	1
   344  0079                     ??_PWM1_Init:
   345  0079                     ??___xxtofl:	
   346                           ; 1 bytes @ 0x9
   347                           
   348                           
   349                           ; 1 bytes @ 0x9
   350  0079                     	ds	4
   351  007D                     ADC_readChannel@channel:
   352                           
   353                           ; 1 bytes @ 0xD
   354  007D                     	ds	1
   355                           
   356                           	psect	cstackBANK0
   357  0020                     __pcstackBANK0:
   358  0020                     ___aldiv@counter:
   359                           
   360                           ; 1 bytes @ 0x0
   361  0020                     	ds	1
   362  0021                     ___aldiv@sign:
   363                           
   364                           ; 1 bytes @ 0x1
   365  0021                     	ds	1
   366  0022                     ___aldiv@quotient:
   367                           
   368                           ; 4 bytes @ 0x2
   369  0022                     	ds	4
   370  0026                     ?___xxtofl:
   371  0026                     ___xxtofl@val:	
   372                           ; 4 bytes @ 0x6
   373                           
   374                           
   375                           ; 4 bytes @ 0x6
   376  0026                     	ds	4
   377  002A                     ___xxtofl@sign:
   378                           
   379                           ; 1 bytes @ 0xA
   380  002A                     	ds	1
   381  002B                     ___xxtofl@exp:
   382                           
   383                           ; 1 bytes @ 0xB
   384  002B                     	ds	1
   385  002C                     ___xxtofl@arg:
   386                           
   387                           ; 4 bytes @ 0xC
   388  002C                     	ds	4
   389  0030                     ?_ADC_readChannel:
   390  0030                     ?___fldiv:	
   391                           ; 4 bytes @ 0x10
   392                           
   393  0030                     ___fldiv@a:	
   394                           ; 4 bytes @ 0x10
   395                           
   396                           
   397                           ; 4 bytes @ 0x10
   398  0030                     	ds	4
   399  0034                     ??_ADC_readChannel:
   400  0034                     ___fldiv@b:	
   401                           ; 1 bytes @ 0x14
   402                           
   403                           
   404                           ; 4 bytes @ 0x14
   405  0034                     	ds	4
   406  0038                     ??___fldiv:
   407                           
   408                           ; 1 bytes @ 0x18
   409  0038                     	ds	5
   410  003D                     ___fldiv@rem:
   411                           
   412                           ; 4 bytes @ 0x1D
   413  003D                     	ds	4
   414  0041                     ___fldiv@sign:
   415                           
   416                           ; 1 bytes @ 0x21
   417  0041                     	ds	1
   418  0042                     ___fldiv@new_exp:
   419                           
   420                           ; 2 bytes @ 0x22
   421  0042                     	ds	2
   422  0044                     ___fldiv@grs:
   423                           
   424                           ; 4 bytes @ 0x24
   425  0044                     	ds	4
   426  0048                     ___fldiv@bexp:
   427                           
   428                           ; 1 bytes @ 0x28
   429  0048                     	ds	1
   430  0049                     ___fldiv@aexp:
   431                           
   432                           ; 1 bytes @ 0x29
   433  0049                     	ds	1
   434  004A                     ?___flmul:
   435  004A                     ___flmul@b:	
   436                           ; 4 bytes @ 0x2A
   437                           
   438                           
   439                           ; 4 bytes @ 0x2A
   440  004A                     	ds	4
   441  004E                     ___flmul@a:
   442                           
   443                           ; 4 bytes @ 0x2E
   444  004E                     	ds	4
   445  0052                     ??___flmul:
   446                           
   447                           ; 1 bytes @ 0x32
   448  0052                     	ds	5
   449  0057                     ___flmul@sign:
   450                           
   451                           ; 1 bytes @ 0x37
   452  0057                     	ds	1
   453  0058                     ___flmul@grs:
   454                           
   455                           ; 4 bytes @ 0x38
   456  0058                     	ds	4
   457  005C                     ___flmul@aexp:
   458                           
   459                           ; 1 bytes @ 0x3C
   460  005C                     	ds	1
   461  005D                     ___flmul@bexp:
   462                           
   463                           ; 1 bytes @ 0x3D
   464  005D                     	ds	1
   465  005E                     ___flmul@prod:
   466                           
   467                           ; 4 bytes @ 0x3E
   468  005E                     	ds	4
   469  0062                     ___flmul@temp:
   470                           
   471                           ; 2 bytes @ 0x42
   472  0062                     	ds	2
   473  0064                     ?___fltol:
   474  0064                     ___fltol@f1:	
   475                           ; 4 bytes @ 0x44
   476                           
   477                           
   478                           ; 4 bytes @ 0x44
   479  0064                     	ds	4
   480  0068                     ??___fltol:
   481                           
   482                           ; 1 bytes @ 0x48
   483  0068                     	ds	5
   484  006D                     ___fltol@sign1:
   485                           
   486                           ; 1 bytes @ 0x4D
   487  006D                     	ds	1
   488  006E                     ___fltol@exp1:
   489                           
   490                           ; 1 bytes @ 0x4E
   491  006E                     	ds	1
   492                           
   493                           	psect	maintext
   494  0F96                     __pmaintext:	
   495 ;;
   496 ;;Main: autosize = 0, tempsize = 2, incstack = 0, save=0
   497 ;;
   498 ;; *************** function _main *****************
   499 ;; Defined at:
   500 ;;		line 66 in file "pwm.c"
   501 ;; Parameters:    Size  Location     Type
   502 ;;		None
   503 ;; Auto vars:     Size  Location     Type
   504 ;;  adc_value       4    8[BANK1 ] 
   505 ;; Return value:  Size  Location     Type
   506 ;;                  1    wreg      void 
   507 ;; Registers used:
   508 ;;		wreg, status,2, status,0, btemp+1, pclath, cstack
   509 ;; Tracked objects:
   510 ;;		On entry : B00/0
   511 ;;		On exit  : 0/0
   512 ;;		Unchanged: 0/0
   513 ;; Data sizes:     COMMON   BANK0   BANK1   BANK3   BANK2
   514 ;;      Params:         0       0       0       0       0
   515 ;;      Locals:         0       0       6       0       0
   516 ;;      Temps:          0       0       2       0       0
   517 ;;      Totals:         0       0       8       0       0
   518 ;;Total ram usage:        8 bytes
   519 ;; Hardware stack levels required when called:    3
   520 ;; This function calls:
   521 ;;		_ADC_Init
   522 ;;		_ADC_readChannel
   523 ;;		_PWM1_Init
   524 ;;		_PWM_dutyCycle
   525 ;;		___fltol
   526 ;; This function is called by:
   527 ;;		Startup code after reset
   528 ;; This function uses a non-reentrant model
   529 ;;
   530                           
   531                           
   532                           ;psect for function _main
   533  0F96                     _main:
   534  0F96                     l1587:	
   535                           ;incstack = 0
   536                           ; Regs used in _main: [wreg+status,2+status,0+btemp+1+pclath+cstack]
   537                           
   538                           
   539                           ;pwm.c: 67:     double adc_value;;pwm.c: 68:     TRISA = 0xFF;
   540  0F96  30FF               	movlw	255
   541  0F97  1683               	bsf	3,5	;RP0=1, select bank1
   542  0F98  1303               	bcf	3,6	;RP1=0, select bank1
   543  0F99  0085               	movwf	5	;volatile
   544  0F9A                     l1589:
   545                           
   546                           ;pwm.c: 69:     ADC_Init();
   547  0F9A  120A  118A  200A  120A  158A  	fcall	_ADC_Init
   548  0F9F                     l1591:
   549                           
   550                           ;pwm.c: 70:     PWM1_Init();
   551  0F9F  120A  158A  26F6  120A  158A  	fcall	_PWM1_Init
   552  0FA4                     l1593:
   553                           
   554                           ;pwm.c: 72:         adc_value = ADC_readChannel(0);
   555  0FA4  3000               	movlw	0
   556  0FA5  120A  158A  2737  120A  158A  	fcall	_ADC_readChannel
   557  0FAA  1283               	bcf	3,5	;RP0=0, select bank0
   558  0FAB  1303               	bcf	3,6	;RP1=0, select bank0
   559  0FAC  0833               	movf	?_ADC_readChannel+3,w
   560  0FAD  1683               	bsf	3,5	;RP0=1, select bank1
   561  0FAE  1303               	bcf	3,6	;RP1=0, select bank1
   562  0FAF  00AB               	movwf	(main@adc_value+3)^(0+128)
   563  0FB0  1283               	bcf	3,5	;RP0=0, select bank0
   564  0FB1  1303               	bcf	3,6	;RP1=0, select bank0
   565  0FB2  0832               	movf	?_ADC_readChannel+2,w
   566  0FB3  1683               	bsf	3,5	;RP0=1, select bank1
   567  0FB4  1303               	bcf	3,6	;RP1=0, select bank1
   568  0FB5  00AA               	movwf	(main@adc_value+2)^(0+128)
   569  0FB6  1283               	bcf	3,5	;RP0=0, select bank0
   570  0FB7  1303               	bcf	3,6	;RP1=0, select bank0
   571  0FB8  0831               	movf	?_ADC_readChannel+1,w
   572  0FB9  1683               	bsf	3,5	;RP0=1, select bank1
   573  0FBA  1303               	bcf	3,6	;RP1=0, select bank1
   574  0FBB  00A9               	movwf	(main@adc_value+1)^(0+128)
   575  0FBC  1283               	bcf	3,5	;RP0=0, select bank0
   576  0FBD  1303               	bcf	3,6	;RP1=0, select bank0
   577  0FBE  0830               	movf	?_ADC_readChannel,w
   578  0FBF  1683               	bsf	3,5	;RP0=1, select bank1
   579  0FC0  1303               	bcf	3,6	;RP1=0, select bank1
   580  0FC1  00A8               	movwf	main@adc_value^(0+128)
   581  0FC2                     l1595:
   582                           
   583                           ;pwm.c: 73:         PWM_dutyCycle(adc_value);
   584  0FC2  082B               	movf	(main@adc_value+3)^(0+128),w
   585  0FC3  1283               	bcf	3,5	;RP0=0, select bank0
   586  0FC4  1303               	bcf	3,6	;RP1=0, select bank0
   587  0FC5  00E7               	movwf	___fltol@f1+3
   588  0FC6  1683               	bsf	3,5	;RP0=1, select bank1
   589  0FC7  1303               	bcf	3,6	;RP1=0, select bank1
   590  0FC8  082A               	movf	(main@adc_value+2)^(0+128),w
   591  0FC9  1283               	bcf	3,5	;RP0=0, select bank0
   592  0FCA  1303               	bcf	3,6	;RP1=0, select bank0
   593  0FCB  00E6               	movwf	___fltol@f1+2
   594  0FCC  1683               	bsf	3,5	;RP0=1, select bank1
   595  0FCD  1303               	bcf	3,6	;RP1=0, select bank1
   596  0FCE  0829               	movf	(main@adc_value+1)^(0+128),w
   597  0FCF  1283               	bcf	3,5	;RP0=0, select bank0
   598  0FD0  1303               	bcf	3,6	;RP1=0, select bank0
   599  0FD1  00E5               	movwf	___fltol@f1+1
   600  0FD2  1683               	bsf	3,5	;RP0=1, select bank1
   601  0FD3  1303               	bcf	3,6	;RP1=0, select bank1
   602  0FD4  0828               	movf	main@adc_value^(0+128),w
   603  0FD5  1283               	bcf	3,5	;RP0=0, select bank0
   604  0FD6  1303               	bcf	3,6	;RP1=0, select bank0
   605  0FD7  00E4               	movwf	___fltol@f1
   606  0FD8  120A  118A  2013  120A  158A  	fcall	___fltol
   607  0FDD  1283               	bcf	3,5	;RP0=0, select bank0
   608  0FDE  1303               	bcf	3,6	;RP1=0, select bank0
   609  0FDF  0865               	movf	?___fltol+1,w
   610  0FE0  1683               	bsf	3,5	;RP0=1, select bank1
   611  0FE1  1303               	bcf	3,6	;RP1=0, select bank1
   612  0FE2  00AD               	movwf	(_main$669+1)^(0+128)
   613  0FE3  1283               	bcf	3,5	;RP0=0, select bank0
   614  0FE4  1303               	bcf	3,6	;RP1=0, select bank0
   615  0FE5  0864               	movf	?___fltol,w
   616  0FE6  1683               	bsf	3,5	;RP0=1, select bank1
   617  0FE7  1303               	bcf	3,6	;RP1=0, select bank1
   618  0FE8  00AC               	movwf	_main$669^(0+128)
   619  0FE9                     l1597:
   620                           
   621                           ;pwm.c: 73:         PWM_dutyCycle(adc_value);
   622  0FE9  082D               	movf	(_main$669+1)^(0+128),w
   623  0FEA  00A1               	movwf	(PWM_dutyCycle@duty+1)^(0+128)
   624  0FEB  082C               	movf	_main$669^(0+128),w
   625  0FEC  00A0               	movwf	PWM_dutyCycle@duty^(0+128)
   626  0FED  120A  118A  21E8  120A  158A  	fcall	_PWM_dutyCycle
   627  0FF2                     l1599:
   628                           
   629                           ;pwm.c: 74:         _delay((unsigned long)((50)*(8000000/4000.0)));
   630  0FF2  3082               	movlw	130
   631  0FF3  1683               	bsf	3,5	;RP0=1, select bank1
   632  0FF4  1303               	bcf	3,6	;RP1=0, select bank1
   633  0FF5  00A7               	movwf	(??_main^(0+128)+1)
   634  0FF6  30DD               	movlw	221
   635  0FF7  00A6               	movwf	??_main^(0+128)
   636  0FF8                     u2257:
   637  0FF8  0BA6               	decfsz	??_main^(0+128),f
   638  0FF9  2FF8               	goto	u2257
   639  0FFA  0BA7               	decfsz	(??_main^(0+128)+1),f
   640  0FFB  2FF8               	goto	u2257
   641  0FFC  2FA4               	goto	l1593
   642  0FFD  120A  118A  2800   	ljmp	start
   643  1000                     __end_of_main:
   644                           
   645                           	psect	text1
   646  01E8                     __ptext1:	
   647 ;; *************** function _PWM_dutyCycle *****************
   648 ;; Defined at:
   649 ;;		line 41 in file "pwm.c"
   650 ;; Parameters:    Size  Location     Type
   651 ;;  duty            2    0[BANK1 ] unsigned int 
   652 ;; Auto vars:     Size  Location     Type
   653 ;;		None
   654 ;; Return value:  Size  Location     Type
   655 ;;                  1    wreg      void 
   656 ;; Registers used:
   657 ;;		wreg, status,2, status,0, btemp+1, pclath, cstack
   658 ;; Tracked objects:
   659 ;;		On entry : 0/0
   660 ;;		On exit  : 0/0
   661 ;;		Unchanged: 0/0
   662 ;; Data sizes:     COMMON   BANK0   BANK1   BANK3   BANK2
   663 ;;      Params:         0       0       2       0       0
   664 ;;      Locals:         0       0       0       0       0
   665 ;;      Temps:          0       0       4       0       0
   666 ;;      Totals:         0       0       6       0       0
   667 ;;Total ram usage:        6 bytes
   668 ;; Hardware stack levels used:    1
   669 ;; Hardware stack levels required when called:    2
   670 ;; This function calls:
   671 ;;		___aldiv
   672 ;;		___fldiv
   673 ;;		___flmul
   674 ;;		___fltol
   675 ;;		___xxtofl
   676 ;; This function is called by:
   677 ;;		_main
   678 ;; This function uses a non-reentrant model
   679 ;;
   680                           
   681                           
   682                           ;psect for function _PWM_dutyCycle
   683  01E8                     _PWM_dutyCycle:
   684  01E8                     l1557:	
   685                           ;incstack = 0
   686                           ; Regs used in _PWM_dutyCycle: [wreg+status,2+status,0+btemp+1+pclath+cstack]
   687                           
   688                           
   689                           ;pwm.c: 42:     if (duty < 1023) {
   690  01E8  3003               	movlw	3
   691  01E9  1683               	bsf	3,5	;RP0=1, select bank1
   692  01EA  1303               	bcf	3,6	;RP1=0, select bank1
   693  01EB  0221               	subwf	(PWM_dutyCycle@duty+1)^(0+128),w
   694  01EC  30FF               	movlw	255
   695  01ED  1903               	skipnz
   696  01EE  0220               	subwf	PWM_dutyCycle@duty^(0+128),w
   697  01EF  1803               	skipnc
   698  01F0  29F2               	goto	u2181
   699  01F1  29F3               	goto	u2180
   700  01F2                     u2181:
   701  01F2  2AA3               	goto	l43
   702  01F3                     u2180:
   703  01F3                     l1559:
   704                           
   705                           ;pwm.c: 43:         duty = ((float)duty /1023)*(8000000 /(PWM_freq * 4));
   706  01F3  0820               	movf	PWM_dutyCycle@duty^(0+128),w
   707  01F4  1283               	bcf	3,5	;RP0=0, select bank0
   708  01F5  1303               	bcf	3,6	;RP1=0, select bank0
   709  01F6  00A6               	movwf	___xxtofl@val
   710  01F7  1683               	bsf	3,5	;RP0=1, select bank1
   711  01F8  1303               	bcf	3,6	;RP1=0, select bank1
   712  01F9  0821               	movf	(PWM_dutyCycle@duty+1)^(0+128),w
   713  01FA  1283               	bcf	3,5	;RP0=0, select bank0
   714  01FB  1303               	bcf	3,6	;RP1=0, select bank0
   715  01FC  00A7               	movwf	___xxtofl@val+1
   716  01FD  01A8               	clrf	___xxtofl@val+2
   717  01FE  01A9               	clrf	___xxtofl@val+3
   718  01FF  3000               	movlw	0
   719  0200  120A  118A  212C  120A  118A  	fcall	___xxtofl
   720  0205  1283               	bcf	3,5	;RP0=0, select bank0
   721  0206  1303               	bcf	3,6	;RP1=0, select bank0
   722  0207  0829               	movf	?___xxtofl+3,w
   723  0208  00B7               	movwf	___fldiv@b+3
   724  0209  0828               	movf	?___xxtofl+2,w
   725  020A  00B6               	movwf	___fldiv@b+2
   726  020B  0827               	movf	?___xxtofl+1,w
   727  020C  00B5               	movwf	___fldiv@b+1
   728  020D  0826               	movf	?___xxtofl,w
   729  020E  00B4               	movwf	___fldiv@b
   730  020F  3044               	movlw	68
   731  0210  00B3               	movwf	___fldiv@a+3
   732  0211  307F               	movlw	127
   733  0212  00B2               	movwf	___fldiv@a+2
   734  0213  30C0               	movlw	192
   735  0214  00B1               	movwf	___fldiv@a+1
   736  0215  3000               	movlw	0
   737  0216  00B0               	movwf	___fldiv@a
   738  0217  120A  118A  22A4  120A  118A  	fcall	___fldiv
   739  021C  1283               	bcf	3,5	;RP0=0, select bank0
   740  021D  1303               	bcf	3,6	;RP1=0, select bank0
   741  021E  0833               	movf	?___fldiv+3,w
   742  021F  00D1               	movwf	___flmul@a+3
   743  0220  0832               	movf	?___fldiv+2,w
   744  0221  00D0               	movwf	___flmul@a+2
   745  0222  0831               	movf	?___fldiv+1,w
   746  0223  00CF               	movwf	___flmul@a+1
   747  0224  0830               	movf	?___fldiv,w
   748  0225  00CE               	movwf	___flmul@a
   749  0226  3000               	movlw	0
   750  0227  00F7               	movwf	___aldiv@dividend+3
   751  0228  307A               	movlw	122
   752  0229  00F6               	movwf	___aldiv@dividend+2
   753  022A  3012               	movlw	18
   754  022B  00F5               	movwf	___aldiv@dividend+1
   755  022C  3000               	movlw	0
   756  022D  00F4               	movwf	___aldiv@dividend
   757  022E  1683               	bsf	3,5	;RP0=1, select bank1
   758  022F  1303               	bcf	3,6	;RP1=0, select bank1
   759  0230  082E               	movf	_PWM_freq^(0+128),w
   760  0231  00A2               	movwf	??_PWM_dutyCycle^(0+128)
   761  0232  082F               	movf	(_PWM_freq+1)^(0+128),w
   762  0233  00A3               	movwf	(??_PWM_dutyCycle^(0+128)+1)
   763  0234  0830               	movf	(_PWM_freq+2)^(0+128),w
   764  0235  00A4               	movwf	(??_PWM_dutyCycle^(0+128)+2)
   765  0236  0831               	movf	(_PWM_freq+3)^(0+128),w
   766  0237  00A5               	movwf	(??_PWM_dutyCycle^(0+128)+3)
   767  0238  3002               	movlw	2
   768  0239                     u2195:
   769  0239  1003               	clrc
   770  023A  0DA2               	rlf	??_PWM_dutyCycle^(0+128),f
   771  023B  0DA3               	rlf	(??_PWM_dutyCycle^(0+128)+1),f
   772  023C  0DA4               	rlf	(??_PWM_dutyCycle^(0+128)+2),f
   773  023D  0DA5               	rlf	(??_PWM_dutyCycle^(0+128)+3),f
   774  023E                     u2190:
   775  023E  3EFF               	addlw	-1
   776  023F  1D03               	skipz
   777  0240  2A39               	goto	u2195
   778  0241  0825               	movf	(??_PWM_dutyCycle+3)^(0+128),w
   779  0242  00F3               	movwf	___aldiv@divisor+3
   780  0243  0824               	movf	(??_PWM_dutyCycle+2)^(0+128),w
   781  0244  00F2               	movwf	___aldiv@divisor+2
   782  0245  0823               	movf	(??_PWM_dutyCycle+1)^(0+128),w
   783  0246  00F1               	movwf	___aldiv@divisor+1
   784  0247  0822               	movf	??_PWM_dutyCycle^(0+128),w
   785  0248  00F0               	movwf	___aldiv@divisor
   786  0249  120A  118A  208F  120A  118A  	fcall	___aldiv
   787  024E  0873               	movf	?___aldiv+3,w
   788  024F  1283               	bcf	3,5	;RP0=0, select bank0
   789  0250  1303               	bcf	3,6	;RP1=0, select bank0
   790  0251  00A9               	movwf	___xxtofl@val+3
   791  0252  0872               	movf	?___aldiv+2,w
   792  0253  00A8               	movwf	___xxtofl@val+2
   793  0254  0871               	movf	?___aldiv+1,w
   794  0255  00A7               	movwf	___xxtofl@val+1
   795  0256  0870               	movf	?___aldiv,w
   796  0257  00A6               	movwf	___xxtofl@val
   797  0258  3001               	movlw	1
   798  0259  120A  118A  212C  120A  118A  	fcall	___xxtofl
   799  025E  1283               	bcf	3,5	;RP0=0, select bank0
   800  025F  1303               	bcf	3,6	;RP1=0, select bank0
   801  0260  0829               	movf	?___xxtofl+3,w
   802  0261  00CD               	movwf	___flmul@b+3
   803  0262  0828               	movf	?___xxtofl+2,w
   804  0263  00CC               	movwf	___flmul@b+2
   805  0264  0827               	movf	?___xxtofl+1,w
   806  0265  00CB               	movwf	___flmul@b+1
   807  0266  0826               	movf	?___xxtofl,w
   808  0267  00CA               	movwf	___flmul@b
   809  0268  120A  118A  2481  120A  118A  	fcall	___flmul
   810  026D  1283               	bcf	3,5	;RP0=0, select bank0
   811  026E  1303               	bcf	3,6	;RP1=0, select bank0
   812  026F  084D               	movf	?___flmul+3,w
   813  0270  00E7               	movwf	___fltol@f1+3
   814  0271  084C               	movf	?___flmul+2,w
   815  0272  00E6               	movwf	___fltol@f1+2
   816  0273  084B               	movf	?___flmul+1,w
   817  0274  00E5               	movwf	___fltol@f1+1
   818  0275  084A               	movf	?___flmul,w
   819  0276  00E4               	movwf	___fltol@f1
   820  0277  120A  118A  2013  120A  118A  	fcall	___fltol
   821  027C  1283               	bcf	3,5	;RP0=0, select bank0
   822  027D  1303               	bcf	3,6	;RP1=0, select bank0
   823  027E  0865               	movf	?___fltol+1,w
   824  027F  1683               	bsf	3,5	;RP0=1, select bank1
   825  0280  1303               	bcf	3,6	;RP1=0, select bank1
   826  0281  00A1               	movwf	(PWM_dutyCycle@duty+1)^(0+128)
   827  0282  1283               	bcf	3,5	;RP0=0, select bank0
   828  0283  1303               	bcf	3,6	;RP1=0, select bank0
   829  0284  0864               	movf	?___fltol,w
   830  0285  1683               	bsf	3,5	;RP0=1, select bank1
   831  0286  1303               	bcf	3,6	;RP1=0, select bank1
   832  0287  00A0               	movwf	PWM_dutyCycle@duty^(0+128)
   833  0288                     l1561:
   834                           
   835                           ;pwm.c: 44:         CCP1X = duty & 1;
   836  0288  1820               	btfsc	PWM_dutyCycle@duty^(0+128),0
   837  0289  2A8B               	goto	u2201
   838  028A  2A8F               	goto	u2200
   839  028B                     u2201:
   840  028B  1283               	bcf	3,5	;RP0=0, select bank0
   841  028C  1303               	bcf	3,6	;RP1=0, select bank0
   842  028D  1697               	bsf	23,5	;volatile
   843  028E  2A92               	goto	u2214
   844  028F                     u2200:
   845  028F  1283               	bcf	3,5	;RP0=0, select bank0
   846  0290  1303               	bcf	3,6	;RP1=0, select bank0
   847  0291  1297               	bcf	23,5	;volatile
   848  0292                     u2214:
   849  0292                     l1563:
   850                           
   851                           ;pwm.c: 45:         CCP1Y = duty & 2;
   852  0292  1217               	bcf	23,4	;volatile
   853  0293                     l1565:
   854                           
   855                           ;pwm.c: 46:         CCPR1L = duty >> 2;
   856  0293  1683               	bsf	3,5	;RP0=1, select bank1
   857  0294  1303               	bcf	3,6	;RP1=0, select bank1
   858  0295  0821               	movf	(PWM_dutyCycle@duty+1)^(0+128),w
   859  0296  00A3               	movwf	(??_PWM_dutyCycle^(0+128)+1)
   860  0297  0820               	movf	PWM_dutyCycle@duty^(0+128),w
   861  0298  00A2               	movwf	??_PWM_dutyCycle^(0+128)
   862  0299  1003               	clrc
   863  029A  0CA3               	rrf	(??_PWM_dutyCycle^(0+128)+1),f
   864  029B  0CA2               	rrf	??_PWM_dutyCycle^(0+128),f
   865  029C  1003               	clrc
   866  029D  0CA3               	rrf	(??_PWM_dutyCycle^(0+128)+1),f
   867  029E  0CA2               	rrf	??_PWM_dutyCycle^(0+128),f
   868  029F  0822               	movf	??_PWM_dutyCycle^(0+128),w
   869  02A0  1283               	bcf	3,5	;RP0=0, select bank0
   870  02A1  1303               	bcf	3,6	;RP1=0, select bank0
   871  02A2  0095               	movwf	21	;volatile
   872  02A3                     l43:
   873  02A3  0008               	return
   874  02A4                     __end_of_PWM_dutyCycle:
   875                           
   876                           	psect	text2
   877  0013                     __ptext2:	
   878 ;; *************** function ___fltol *****************
   879 ;; Defined at:
   880 ;;		line 43 in file "C:\Program Files\Microchip\xc8\v2.31\pic\sources\c90\common\fltol.c"
   881 ;; Parameters:    Size  Location     Type
   882 ;;  f1              4   68[BANK0 ] void 
   883 ;; Auto vars:     Size  Location     Type
   884 ;;  exp1            1   78[BANK0 ] unsigned char 
   885 ;;  sign1           1   77[BANK0 ] unsigned char 
   886 ;; Return value:  Size  Location     Type
   887 ;;                  4   68[BANK0 ] long 
   888 ;; Registers used:
   889 ;;		wreg, status,2, status,0
   890 ;; Tracked objects:
   891 ;;		On entry : 0/0
   892 ;;		On exit  : 0/0
   893 ;;		Unchanged: 0/0
   894 ;; Data sizes:     COMMON   BANK0   BANK1   BANK3   BANK2
   895 ;;      Params:         0       4       0       0       0
   896 ;;      Locals:         0       2       0       0       0
   897 ;;      Temps:          0       5       0       0       0
   898 ;;      Totals:         0      11       0       0       0
   899 ;;Total ram usage:       11 bytes
   900 ;; Hardware stack levels used:    1
   901 ;; This function calls:
   902 ;;		Nothing
   903 ;; This function is called by:
   904 ;;		_PWM_dutyCycle
   905 ;;		_main
   906 ;; This function uses a non-reentrant model
   907 ;;
   908                           
   909                           
   910                           ;psect for function ___fltol
   911  0013                     ___fltol:
   912  0013                     l1181:	
   913                           ;incstack = 0
   914                           ; Regs used in ___fltol: [wreg+status,2+status,0]
   915                           
   916  0013  1003               	clrc
   917  0014  1283               	bcf	3,5	;RP0=0, select bank0
   918  0015  1303               	bcf	3,6	;RP1=0, select bank0
   919  0016  0D66               	rlf	___fltol@f1+2,w
   920  0017  0D67               	rlf	___fltol@f1+3,w
   921  0018  00E8               	movwf	??___fltol
   922  0019  0868               	movf	??___fltol,w
   923  001A  00EE               	movwf	___fltol@exp1
   924  001B  086E               	movf	___fltol@exp1,w
   925  001C  1D03               	btfss	3,2
   926  001D  281F               	goto	u1261
   927  001E  2820               	goto	u1260
   928  001F                     u1261:
   929  001F  2829               	goto	l1187
   930  0020                     u1260:
   931  0020                     l1183:
   932  0020  3000               	movlw	0
   933  0021  00E7               	movwf	?___fltol+3
   934  0022  3000               	movlw	0
   935  0023  00E6               	movwf	?___fltol+2
   936  0024  3000               	movlw	0
   937  0025  00E5               	movwf	?___fltol+1
   938  0026  3000               	movlw	0
   939  0027  00E4               	movwf	?___fltol
   940  0028  288E               	goto	l333
   941  0029                     l1187:
   942  0029  0864               	movf	___fltol@f1,w
   943  002A  00E8               	movwf	??___fltol
   944  002B  0865               	movf	___fltol@f1+1,w
   945  002C  00E9               	movwf	??___fltol+1
   946  002D  0866               	movf	___fltol@f1+2,w
   947  002E  00EA               	movwf	??___fltol+2
   948  002F  0867               	movf	___fltol@f1+3,w
   949  0030  00EB               	movwf	??___fltol+3
   950  0031  301F               	movlw	31
   951  0032                     u1275:
   952  0032  1003               	clrc
   953  0033  0CEB               	rrf	??___fltol+3,f
   954  0034  0CEA               	rrf	??___fltol+2,f
   955  0035  0CE9               	rrf	??___fltol+1,f
   956  0036  0CE8               	rrf	??___fltol,f
   957  0037                     u1270:
   958  0037  3EFF               	addlw	-1
   959  0038  1D03               	skipz
   960  0039  2832               	goto	u1275
   961  003A  0868               	movf	??___fltol,w
   962  003B  00EC               	movwf	??___fltol+4
   963  003C  086C               	movf	??___fltol+4,w
   964  003D  00ED               	movwf	___fltol@sign1
   965  003E                     l1189:
   966  003E  17E6               	bsf	___fltol@f1+2,7
   967  003F                     l1191:
   968  003F  30FF               	movlw	255
   969  0040  05E4               	andwf	___fltol@f1,f
   970  0041  30FF               	movlw	255
   971  0042  05E5               	andwf	___fltol@f1+1,f
   972  0043  30FF               	movlw	255
   973  0044  05E6               	andwf	___fltol@f1+2,f
   974  0045  3000               	movlw	0
   975  0046  05E7               	andwf	___fltol@f1+3,f
   976  0047                     l1193:
   977  0047  3096               	movlw	150
   978  0048  02EE               	subwf	___fltol@exp1,f
   979  0049                     l1195:
   980  0049  1FEE               	btfss	___fltol@exp1,7
   981  004A  284C               	goto	u1281
   982  004B  284D               	goto	u1280
   983  004C                     u1281:
   984  004C  2867               	goto	l1205
   985  004D                     u1280:
   986  004D                     l1197:
   987  004D  086E               	movf	___fltol@exp1,w
   988  004E  3A80               	xorlw	128
   989  004F  3E97               	addlw	151
   990  0050  1803               	skipnc
   991  0051  2853               	goto	u1291
   992  0052  2854               	goto	u1290
   993  0053                     u1291:
   994  0053  2855               	goto	l1203
   995  0054                     u1290:
   996  0054  2820               	goto	l1183
   997  0055                     l1203:
   998  0055  3001               	movlw	1
   999  0056                     u1305:
  1000  0056  1003               	clrc
  1001  0057  0CE7               	rrf	___fltol@f1+3,f
  1002  0058  0CE6               	rrf	___fltol@f1+2,f
  1003  0059  0CE5               	rrf	___fltol@f1+1,f
  1004  005A  0CE4               	rrf	___fltol@f1,f
  1005  005B  3EFF               	addlw	-1
  1006  005C  1D03               	skipz
  1007  005D  2856               	goto	u1305
  1008  005E  3001               	movlw	1
  1009  005F  00E8               	movwf	??___fltol
  1010  0060  0868               	movf	??___fltol,w
  1011  0061  07EE               	addwf	___fltol@exp1,f
  1012  0062  1D03               	btfss	3,2
  1013  0063  2865               	goto	u1311
  1014  0064  2866               	goto	u1310
  1015  0065                     u1311:
  1016  0065  2855               	goto	l1203
  1017  0066                     u1310:
  1018  0066  287E               	goto	l1213
  1019  0067                     l1205:
  1020  0067  3020               	movlw	32
  1021  0068  026E               	subwf	___fltol@exp1,w
  1022  0069  1C03               	skipc
  1023  006A  286C               	goto	u1321
  1024  006B  286D               	goto	u1320
  1025  006C                     u1321:
  1026  006C  2879               	goto	l340
  1027  006D                     u1320:
  1028  006D  2820               	goto	l1183
  1029  006E                     l1211:
  1030  006E  3001               	movlw	1
  1031  006F  00E8               	movwf	??___fltol
  1032  0070                     u1335:
  1033  0070  1003               	clrc
  1034  0071  0DE4               	rlf	___fltol@f1,f
  1035  0072  0DE5               	rlf	___fltol@f1+1,f
  1036  0073  0DE6               	rlf	___fltol@f1+2,f
  1037  0074  0DE7               	rlf	___fltol@f1+3,f
  1038  0075  0BE8               	decfsz	??___fltol,f
  1039  0076  2870               	goto	u1335
  1040  0077  3001               	movlw	1
  1041  0078  02EE               	subwf	___fltol@exp1,f
  1042  0079                     l340:
  1043  0079  086E               	movf	___fltol@exp1,w
  1044  007A  1D03               	btfss	3,2
  1045  007B  287D               	goto	u1341
  1046  007C  287E               	goto	u1340
  1047  007D                     u1341:
  1048  007D  286E               	goto	l1211
  1049  007E                     u1340:
  1050  007E                     l1213:
  1051  007E  086D               	movf	___fltol@sign1,w
  1052  007F  1903               	btfsc	3,2
  1053  0080  2882               	goto	u1351
  1054  0081  2883               	goto	u1350
  1055  0082                     u1351:
  1056  0082  288E               	goto	l343
  1057  0083                     u1350:
  1058  0083                     l1215:
  1059  0083  09E4               	comf	___fltol@f1,f
  1060  0084  09E5               	comf	___fltol@f1+1,f
  1061  0085  09E6               	comf	___fltol@f1+2,f
  1062  0086  09E7               	comf	___fltol@f1+3,f
  1063  0087  0AE4               	incf	___fltol@f1,f
  1064  0088  1903               	skipnz
  1065  0089  0AE5               	incf	___fltol@f1+1,f
  1066  008A  1903               	skipnz
  1067  008B  0AE6               	incf	___fltol@f1+2,f
  1068  008C  1903               	skipnz
  1069  008D  0AE7               	incf	___fltol@f1+3,f
  1070  008E                     l343:
  1071  008E                     l333:
  1072  008E  0008               	return
  1073  008F                     __end_of___fltol:
  1074                           
  1075                           	psect	text3
  1076  0481                     __ptext3:	
  1077 ;; *************** function ___flmul *****************
  1078 ;; Defined at:
  1079 ;;		line 8 in file "C:\Program Files\Microchip\xc8\v2.31\pic\sources\c90\common\sprcmul.c"
  1080 ;; Parameters:    Size  Location     Type
  1081 ;;  b               4   42[BANK0 ] long 
  1082 ;;  a               4   46[BANK0 ] long 
  1083 ;; Auto vars:     Size  Location     Type
  1084 ;;  prod            4   62[BANK0 ] struct .
  1085 ;;  grs             4   56[BANK0 ] unsigned long 
  1086 ;;  temp            2   66[BANK0 ] struct .
  1087 ;;  bexp            1   61[BANK0 ] unsigned char 
  1088 ;;  aexp            1   60[BANK0 ] unsigned char 
  1089 ;;  sign            1   55[BANK0 ] unsigned char 
  1090 ;; Return value:  Size  Location     Type
  1091 ;;                  4   42[BANK0 ] unsigned char 
  1092 ;; Registers used:
  1093 ;;		wreg, status,2, status,0, btemp+1, pclath, cstack
  1094 ;; Tracked objects:
  1095 ;;		On entry : 0/0
  1096 ;;		On exit  : 0/0
  1097 ;;		Unchanged: 0/0
  1098 ;; Data sizes:     COMMON   BANK0   BANK1   BANK3   BANK2
  1099 ;;      Params:         0       8       0       0       0
  1100 ;;      Locals:         0      13       0       0       0
  1101 ;;      Temps:          0       5       0       0       0
  1102 ;;      Totals:         0      26       0       0       0
  1103 ;;Total ram usage:       26 bytes
  1104 ;; Hardware stack levels used:    1
  1105 ;; Hardware stack levels required when called:    1
  1106 ;; This function calls:
  1107 ;;		__Umul8_16
  1108 ;; This function is called by:
  1109 ;;		_PWM_dutyCycle
  1110 ;; This function uses a non-reentrant model
  1111 ;;
  1112                           
  1113                           
  1114                           ;psect for function ___flmul
  1115  0481                     ___flmul:
  1116  0481                     l1359:	
  1117                           ;incstack = 0
  1118                           ; Regs used in ___flmul: [wreg+status,2+status,0+btemp+1+pclath+cstack]
  1119                           
  1120  0481  1283               	bcf	3,5	;RP0=0, select bank0
  1121  0482  1303               	bcf	3,6	;RP1=0, select bank0
  1122  0483  084D               	movf	___flmul@b+3,w
  1123  0484  3980               	andlw	128
  1124  0485  00D2               	movwf	??___flmul
  1125  0486  0852               	movf	??___flmul,w
  1126  0487  00D7               	movwf	___flmul@sign
  1127  0488                     l1361:
  1128  0488  084D               	movf	___flmul@b+3,w
  1129  0489  00D2               	movwf	??___flmul
  1130  048A  0752               	addwf	??___flmul,w
  1131  048B  00D3               	movwf	??___flmul+1
  1132  048C  0853               	movf	??___flmul+1,w
  1133  048D  00DD               	movwf	___flmul@bexp
  1134  048E                     l1363:
  1135  048E  1FCC               	btfss	___flmul@b+2,7
  1136  048F  2C91               	goto	u1651
  1137  0490  2C92               	goto	u1650
  1138  0491                     u1651:
  1139  0491  2C93               	goto	l1367
  1140  0492                     u1650:
  1141  0492                     l1365:
  1142  0492  145D               	bsf	___flmul@bexp,0
  1143  0493                     l1367:
  1144  0493  085D               	movf	___flmul@bexp,w
  1145  0494  1903               	btfsc	3,2
  1146  0495  2C97               	goto	u1661
  1147  0496  2C98               	goto	u1660
  1148  0497                     u1661:
  1149  0497  2CA7               	goto	l1375
  1150  0498                     u1660:
  1151  0498                     l1369:
  1152  0498  0A5D               	incf	___flmul@bexp,w
  1153  0499  1D03               	btfss	3,2
  1154  049A  2C9C               	goto	u1671
  1155  049B  2C9D               	goto	u1670
  1156  049C                     u1671:
  1157  049C  2CA5               	goto	l1373
  1158  049D                     u1670:
  1159  049D                     l1371:
  1160  049D  3000               	movlw	0
  1161  049E  00CD               	movwf	___flmul@b+3
  1162  049F  3000               	movlw	0
  1163  04A0  00CC               	movwf	___flmul@b+2
  1164  04A1  3000               	movlw	0
  1165  04A2  00CB               	movwf	___flmul@b+1
  1166  04A3  3000               	movlw	0
  1167  04A4  00CA               	movwf	___flmul@b
  1168  04A5                     l1373:
  1169  04A5  17CC               	bsf	___flmul@b+2,7
  1170  04A6  2CAF               	goto	l1377
  1171  04A7                     l1375:
  1172  04A7  3000               	movlw	0
  1173  04A8  00CD               	movwf	___flmul@b+3
  1174  04A9  3000               	movlw	0
  1175  04AA  00CC               	movwf	___flmul@b+2
  1176  04AB  3000               	movlw	0
  1177  04AC  00CB               	movwf	___flmul@b+1
  1178  04AD  3000               	movlw	0
  1179  04AE  00CA               	movwf	___flmul@b
  1180  04AF                     l1377:
  1181  04AF  0851               	movf	___flmul@a+3,w
  1182  04B0  3980               	andlw	128
  1183  04B1  00D2               	movwf	??___flmul
  1184  04B2  0852               	movf	??___flmul,w
  1185  04B3  06D7               	xorwf	___flmul@sign,f
  1186  04B4                     l1379:
  1187  04B4  0851               	movf	___flmul@a+3,w
  1188  04B5  00D2               	movwf	??___flmul
  1189  04B6  0752               	addwf	??___flmul,w
  1190  04B7  00D3               	movwf	??___flmul+1
  1191  04B8  0853               	movf	??___flmul+1,w
  1192  04B9  00DC               	movwf	___flmul@aexp
  1193  04BA                     l1381:
  1194  04BA  1FD0               	btfss	___flmul@a+2,7
  1195  04BB  2CBD               	goto	u1681
  1196  04BC  2CBE               	goto	u1680
  1197  04BD                     u1681:
  1198  04BD  2CBF               	goto	l1385
  1199  04BE                     u1680:
  1200  04BE                     l1383:
  1201  04BE  145C               	bsf	___flmul@aexp,0
  1202  04BF                     l1385:
  1203  04BF  085C               	movf	___flmul@aexp,w
  1204  04C0  1903               	btfsc	3,2
  1205  04C1  2CC3               	goto	u1691
  1206  04C2  2CC4               	goto	u1690
  1207  04C3                     u1691:
  1208  04C3  2CD3               	goto	l1393
  1209  04C4                     u1690:
  1210  04C4                     l1387:
  1211  04C4  0A5C               	incf	___flmul@aexp,w
  1212  04C5  1D03               	btfss	3,2
  1213  04C6  2CC8               	goto	u1701
  1214  04C7  2CC9               	goto	u1700
  1215  04C8                     u1701:
  1216  04C8  2CD1               	goto	l1391
  1217  04C9                     u1700:
  1218  04C9                     l1389:
  1219  04C9  3000               	movlw	0
  1220  04CA  00D1               	movwf	___flmul@a+3
  1221  04CB  3000               	movlw	0
  1222  04CC  00D0               	movwf	___flmul@a+2
  1223  04CD  3000               	movlw	0
  1224  04CE  00CF               	movwf	___flmul@a+1
  1225  04CF  3000               	movlw	0
  1226  04D0  00CE               	movwf	___flmul@a
  1227  04D1                     l1391:
  1228  04D1  17D0               	bsf	___flmul@a+2,7
  1229  04D2  2CDB               	goto	l1395
  1230  04D3                     l1393:
  1231  04D3  3000               	movlw	0
  1232  04D4  00D1               	movwf	___flmul@a+3
  1233  04D5  3000               	movlw	0
  1234  04D6  00D0               	movwf	___flmul@a+2
  1235  04D7  3000               	movlw	0
  1236  04D8  00CF               	movwf	___flmul@a+1
  1237  04D9  3000               	movlw	0
  1238  04DA  00CE               	movwf	___flmul@a
  1239  04DB                     l1395:
  1240  04DB  085C               	movf	___flmul@aexp,w
  1241  04DC  1903               	btfsc	3,2
  1242  04DD  2CDF               	goto	u1711
  1243  04DE  2CE0               	goto	u1710
  1244  04DF                     u1711:
  1245  04DF  2CE5               	goto	l1399
  1246  04E0                     u1710:
  1247  04E0                     l1397:
  1248  04E0  085D               	movf	___flmul@bexp,w
  1249  04E1  1D03               	btfss	3,2
  1250  04E2  2CE4               	goto	u1721
  1251  04E3  2CE5               	goto	u1720
  1252  04E4                     u1721:
  1253  04E4  2CEE               	goto	l1403
  1254  04E5                     u1720:
  1255  04E5                     l1399:
  1256  04E5  3000               	movlw	0
  1257  04E6  00CD               	movwf	?___flmul+3
  1258  04E7  3000               	movlw	0
  1259  04E8  00CC               	movwf	?___flmul+2
  1260  04E9  3000               	movlw	0
  1261  04EA  00CB               	movwf	?___flmul+1
  1262  04EB  3000               	movlw	0
  1263  04EC  00CA               	movwf	?___flmul
  1264  04ED  2FE1               	goto	l536
  1265  04EE                     l1403:
  1266  04EE  084A               	movf	___flmul@b,w
  1267  04EF  00D2               	movwf	??___flmul
  1268  04F0  0852               	movf	??___flmul,w
  1269  04F1  00F0               	movwf	__Umul8_16@multiplicand
  1270  04F2  0850               	movf	___flmul@a+2,w
  1271  04F3  120A  158A  26CF  120A  118A  	fcall	__Umul8_16
  1272  04F8  0871               	movf	?__Umul8_16+1,w
  1273  04F9  1283               	bcf	3,5	;RP0=0, select bank0
  1274  04FA  1303               	bcf	3,6	;RP1=0, select bank0
  1275  04FB  00E3               	movwf	___flmul@temp+1
  1276  04FC  0870               	movf	?__Umul8_16,w
  1277  04FD  00E2               	movwf	___flmul@temp
  1278  04FE                     l1405:
  1279  04FE  0862               	movf	___flmul@temp,w
  1280  04FF  00D2               	movwf	??___flmul
  1281  0500  01D3               	clrf	??___flmul+1
  1282  0501  01D4               	clrf	??___flmul+2
  1283  0502  01D5               	clrf	??___flmul+3
  1284  0503  0855               	movf	??___flmul+3,w
  1285  0504  00DB               	movwf	___flmul@grs+3
  1286  0505  0854               	movf	??___flmul+2,w
  1287  0506  00DA               	movwf	___flmul@grs+2
  1288  0507  0853               	movf	??___flmul+1,w
  1289  0508  00D9               	movwf	___flmul@grs+1
  1290  0509  0852               	movf	??___flmul,w
  1291  050A  00D8               	movwf	___flmul@grs
  1292  050B                     l1407:
  1293  050B  0863               	movf	___flmul@temp+1,w
  1294  050C  00D2               	movwf	??___flmul
  1295  050D  01D3               	clrf	??___flmul+1
  1296  050E  01D4               	clrf	??___flmul+2
  1297  050F  01D5               	clrf	??___flmul+3
  1298  0510  0855               	movf	??___flmul+3,w
  1299  0511  00E1               	movwf	___flmul@prod+3
  1300  0512  0854               	movf	??___flmul+2,w
  1301  0513  00E0               	movwf	___flmul@prod+2
  1302  0514  0853               	movf	??___flmul+1,w
  1303  0515  00DF               	movwf	___flmul@prod+1
  1304  0516  0852               	movf	??___flmul,w
  1305  0517  00DE               	movwf	___flmul@prod
  1306  0518  084B               	movf	___flmul@b+1,w
  1307  0519  00D2               	movwf	??___flmul
  1308  051A  0852               	movf	??___flmul,w
  1309  051B  00F0               	movwf	__Umul8_16@multiplicand
  1310  051C  084F               	movf	___flmul@a+1,w
  1311  051D  120A  158A  26CF  120A  118A  	fcall	__Umul8_16
  1312  0522  0871               	movf	?__Umul8_16+1,w
  1313  0523  1283               	bcf	3,5	;RP0=0, select bank0
  1314  0524  1303               	bcf	3,6	;RP1=0, select bank0
  1315  0525  00E3               	movwf	___flmul@temp+1
  1316  0526  0870               	movf	?__Umul8_16,w
  1317  0527  00E2               	movwf	___flmul@temp
  1318  0528                     l1409:
  1319  0528  0862               	movf	___flmul@temp,w
  1320  0529  00D2               	movwf	??___flmul
  1321  052A  01D3               	clrf	??___flmul+1
  1322  052B  01D4               	clrf	??___flmul+2
  1323  052C  01D5               	clrf	??___flmul+3
  1324  052D  0852               	movf	??___flmul,w
  1325  052E  07D8               	addwf	___flmul@grs,f
  1326  052F  0853               	movf	??___flmul+1,w
  1327  0530  1103               	clrz
  1328  0531  1803               	skipnc
  1329  0532  3E01               	addlw	1
  1330  0533  1903               	skipnz
  1331  0534  2D36               	goto	u1731
  1332  0535  07D9               	addwf	___flmul@grs+1,f
  1333  0536                     u1731:
  1334  0536  0854               	movf	??___flmul+2,w
  1335  0537  1103               	clrz
  1336  0538  1803               	skipnc
  1337  0539  3E01               	addlw	1
  1338  053A  1903               	skipnz
  1339  053B  2D3D               	goto	u1732
  1340  053C  07DA               	addwf	___flmul@grs+2,f
  1341  053D                     u1732:
  1342  053D  0855               	movf	??___flmul+3,w
  1343  053E  1103               	clrz
  1344  053F  1803               	skipnc
  1345  0540  3E01               	addlw	1
  1346  0541  1903               	skipnz
  1347  0542  2D44               	goto	u1733
  1348  0543  07DB               	addwf	___flmul@grs+3,f
  1349  0544                     u1733:
  1350  0544                     l1411:
  1351  0544  0863               	movf	___flmul@temp+1,w
  1352  0545  00D2               	movwf	??___flmul
  1353  0546  01D3               	clrf	??___flmul+1
  1354  0547  01D4               	clrf	??___flmul+2
  1355  0548  01D5               	clrf	??___flmul+3
  1356  0549  0852               	movf	??___flmul,w
  1357  054A  07DE               	addwf	___flmul@prod,f
  1358  054B  0853               	movf	??___flmul+1,w
  1359  054C  1103               	clrz
  1360  054D  1803               	skipnc
  1361  054E  3E01               	addlw	1
  1362  054F  1903               	skipnz
  1363  0550  2D52               	goto	u1741
  1364  0551  07DF               	addwf	___flmul@prod+1,f
  1365  0552                     u1741:
  1366  0552  0854               	movf	??___flmul+2,w
  1367  0553  1103               	clrz
  1368  0554  1803               	skipnc
  1369  0555  3E01               	addlw	1
  1370  0556  1903               	skipnz
  1371  0557  2D59               	goto	u1742
  1372  0558  07E0               	addwf	___flmul@prod+2,f
  1373  0559                     u1742:
  1374  0559  0855               	movf	??___flmul+3,w
  1375  055A  1103               	clrz
  1376  055B  1803               	skipnc
  1377  055C  3E01               	addlw	1
  1378  055D  1903               	skipnz
  1379  055E  2D60               	goto	u1743
  1380  055F  07E1               	addwf	___flmul@prod+3,f
  1381  0560                     u1743:
  1382  0560  084C               	movf	___flmul@b+2,w
  1383  0561  00D2               	movwf	??___flmul
  1384  0562  0852               	movf	??___flmul,w
  1385  0563  00F0               	movwf	__Umul8_16@multiplicand
  1386  0564  084E               	movf	___flmul@a,w
  1387  0565  120A  158A  26CF  120A  118A  	fcall	__Umul8_16
  1388  056A  0871               	movf	?__Umul8_16+1,w
  1389  056B  1283               	bcf	3,5	;RP0=0, select bank0
  1390  056C  1303               	bcf	3,6	;RP1=0, select bank0
  1391  056D  00E3               	movwf	___flmul@temp+1
  1392  056E  0870               	movf	?__Umul8_16,w
  1393  056F  00E2               	movwf	___flmul@temp
  1394  0570                     l1413:
  1395  0570  0862               	movf	___flmul@temp,w
  1396  0571  00D2               	movwf	??___flmul
  1397  0572  01D3               	clrf	??___flmul+1
  1398  0573  01D4               	clrf	??___flmul+2
  1399  0574  01D5               	clrf	??___flmul+3
  1400  0575  0852               	movf	??___flmul,w
  1401  0576  07D8               	addwf	___flmul@grs,f
  1402  0577  0853               	movf	??___flmul+1,w
  1403  0578  1103               	clrz
  1404  0579  1803               	skipnc
  1405  057A  3E01               	addlw	1
  1406  057B  1903               	skipnz
  1407  057C  2D7E               	goto	u1751
  1408  057D  07D9               	addwf	___flmul@grs+1,f
  1409  057E                     u1751:
  1410  057E  0854               	movf	??___flmul+2,w
  1411  057F  1103               	clrz
  1412  0580  1803               	skipnc
  1413  0581  3E01               	addlw	1
  1414  0582  1903               	skipnz
  1415  0583  2D85               	goto	u1752
  1416  0584  07DA               	addwf	___flmul@grs+2,f
  1417  0585                     u1752:
  1418  0585  0855               	movf	??___flmul+3,w
  1419  0586  1103               	clrz
  1420  0587  1803               	skipnc
  1421  0588  3E01               	addlw	1
  1422  0589  1903               	skipnz
  1423  058A  2D8C               	goto	u1753
  1424  058B  07DB               	addwf	___flmul@grs+3,f
  1425  058C                     u1753:
  1426  058C                     l1415:
  1427  058C  0863               	movf	___flmul@temp+1,w
  1428  058D  00D2               	movwf	??___flmul
  1429  058E  01D3               	clrf	??___flmul+1
  1430  058F  01D4               	clrf	??___flmul+2
  1431  0590  01D5               	clrf	??___flmul+3
  1432  0591  0852               	movf	??___flmul,w
  1433  0592  07DE               	addwf	___flmul@prod,f
  1434  0593  0853               	movf	??___flmul+1,w
  1435  0594  1103               	clrz
  1436  0595  1803               	skipnc
  1437  0596  3E01               	addlw	1
  1438  0597  1903               	skipnz
  1439  0598  2D9A               	goto	u1761
  1440  0599  07DF               	addwf	___flmul@prod+1,f
  1441  059A                     u1761:
  1442  059A  0854               	movf	??___flmul+2,w
  1443  059B  1103               	clrz
  1444  059C  1803               	skipnc
  1445  059D  3E01               	addlw	1
  1446  059E  1903               	skipnz
  1447  059F  2DA1               	goto	u1762
  1448  05A0  07E0               	addwf	___flmul@prod+2,f
  1449  05A1                     u1762:
  1450  05A1  0855               	movf	??___flmul+3,w
  1451  05A2  1103               	clrz
  1452  05A3  1803               	skipnc
  1453  05A4  3E01               	addlw	1
  1454  05A5  1903               	skipnz
  1455  05A6  2DA8               	goto	u1763
  1456  05A7  07E1               	addwf	___flmul@prod+3,f
  1457  05A8                     u1763:
  1458  05A8                     l1417:
  1459  05A8  3008               	movlw	8
  1460  05A9  00D2               	movwf	??___flmul
  1461  05AA                     u1775:
  1462  05AA  1003               	clrc
  1463  05AB  0DD8               	rlf	___flmul@grs,f
  1464  05AC  0DD9               	rlf	___flmul@grs+1,f
  1465  05AD  0DDA               	rlf	___flmul@grs+2,f
  1466  05AE  0DDB               	rlf	___flmul@grs+3,f
  1467  05AF  0BD2               	decfsz	??___flmul,f
  1468  05B0  2DAA               	goto	u1775
  1469  05B1                     l1419:
  1470  05B1  084B               	movf	___flmul@b+1,w
  1471  05B2  00D2               	movwf	??___flmul
  1472  05B3  0852               	movf	??___flmul,w
  1473  05B4  00F0               	movwf	__Umul8_16@multiplicand
  1474  05B5  084E               	movf	___flmul@a,w
  1475  05B6  120A  158A  26CF  120A  118A  	fcall	__Umul8_16
  1476  05BB  0871               	movf	?__Umul8_16+1,w
  1477  05BC  1283               	bcf	3,5	;RP0=0, select bank0
  1478  05BD  1303               	bcf	3,6	;RP1=0, select bank0
  1479  05BE  00E3               	movwf	___flmul@temp+1
  1480  05BF  0870               	movf	?__Umul8_16,w
  1481  05C0  00E2               	movwf	___flmul@temp
  1482  05C1                     l1421:
  1483  05C1  0862               	movf	___flmul@temp,w
  1484  05C2  00D2               	movwf	??___flmul
  1485  05C3  0863               	movf	___flmul@temp+1,w
  1486  05C4  00D3               	movwf	??___flmul+1
  1487  05C5  01D4               	clrf	??___flmul+2
  1488  05C6  01D5               	clrf	??___flmul+3
  1489  05C7  0852               	movf	??___flmul,w
  1490  05C8  07D8               	addwf	___flmul@grs,f
  1491  05C9  0853               	movf	??___flmul+1,w
  1492  05CA  1103               	clrz
  1493  05CB  1803               	skipnc
  1494  05CC  3E01               	addlw	1
  1495  05CD  1903               	skipnz
  1496  05CE  2DD0               	goto	u1781
  1497  05CF  07D9               	addwf	___flmul@grs+1,f
  1498  05D0                     u1781:
  1499  05D0  0854               	movf	??___flmul+2,w
  1500  05D1  1103               	clrz
  1501  05D2  1803               	skipnc
  1502  05D3  3E01               	addlw	1
  1503  05D4  1903               	skipnz
  1504  05D5  2DD7               	goto	u1782
  1505  05D6  07DA               	addwf	___flmul@grs+2,f
  1506  05D7                     u1782:
  1507  05D7  0855               	movf	??___flmul+3,w
  1508  05D8  1103               	clrz
  1509  05D9  1803               	skipnc
  1510  05DA  3E01               	addlw	1
  1511  05DB  1903               	skipnz
  1512  05DC  2DDE               	goto	u1783
  1513  05DD  07DB               	addwf	___flmul@grs+3,f
  1514  05DE                     u1783:
  1515  05DE                     l1423:
  1516  05DE  084A               	movf	___flmul@b,w
  1517  05DF  00D2               	movwf	??___flmul
  1518  05E0  0852               	movf	??___flmul,w
  1519  05E1  00F0               	movwf	__Umul8_16@multiplicand
  1520  05E2  084F               	movf	___flmul@a+1,w
  1521  05E3  120A  158A  26CF  120A  118A  	fcall	__Umul8_16
  1522  05E8  0871               	movf	?__Umul8_16+1,w
  1523  05E9  1283               	bcf	3,5	;RP0=0, select bank0
  1524  05EA  1303               	bcf	3,6	;RP1=0, select bank0
  1525  05EB  00E3               	movwf	___flmul@temp+1
  1526  05EC  0870               	movf	?__Umul8_16,w
  1527  05ED  00E2               	movwf	___flmul@temp
  1528  05EE                     l1425:
  1529  05EE  0862               	movf	___flmul@temp,w
  1530  05EF  00D2               	movwf	??___flmul
  1531  05F0  0863               	movf	___flmul@temp+1,w
  1532  05F1  00D3               	movwf	??___flmul+1
  1533  05F2  01D4               	clrf	??___flmul+2
  1534  05F3  01D5               	clrf	??___flmul+3
  1535  05F4  0852               	movf	??___flmul,w
  1536  05F5  07D8               	addwf	___flmul@grs,f
  1537  05F6  0853               	movf	??___flmul+1,w
  1538  05F7  1103               	clrz
  1539  05F8  1803               	skipnc
  1540  05F9  3E01               	addlw	1
  1541  05FA  1903               	skipnz
  1542  05FB  2DFD               	goto	u1791
  1543  05FC  07D9               	addwf	___flmul@grs+1,f
  1544  05FD                     u1791:
  1545  05FD  0854               	movf	??___flmul+2,w
  1546  05FE  1103               	clrz
  1547  05FF  1803               	skipnc
  1548  0600  3E01               	addlw	1
  1549  0601  1903               	skipnz
  1550  0602  2E04               	goto	u1792
  1551  0603  07DA               	addwf	___flmul@grs+2,f
  1552  0604                     u1792:
  1553  0604  0855               	movf	??___flmul+3,w
  1554  0605  1103               	clrz
  1555  0606  1803               	skipnc
  1556  0607  3E01               	addlw	1
  1557  0608  1903               	skipnz
  1558  0609  2E0B               	goto	u1793
  1559  060A  07DB               	addwf	___flmul@grs+3,f
  1560  060B                     u1793:
  1561  060B                     l1427:
  1562  060B  3008               	movlw	8
  1563  060C  00D2               	movwf	??___flmul
  1564  060D                     u1805:
  1565  060D  1003               	clrc
  1566  060E  0DD8               	rlf	___flmul@grs,f
  1567  060F  0DD9               	rlf	___flmul@grs+1,f
  1568  0610  0DDA               	rlf	___flmul@grs+2,f
  1569  0611  0DDB               	rlf	___flmul@grs+3,f
  1570  0612  0BD2               	decfsz	??___flmul,f
  1571  0613  2E0D               	goto	u1805
  1572  0614  084A               	movf	___flmul@b,w
  1573  0615  00D2               	movwf	??___flmul
  1574  0616  0852               	movf	??___flmul,w
  1575  0617  00F0               	movwf	__Umul8_16@multiplicand
  1576  0618  084E               	movf	___flmul@a,w
  1577  0619  120A  158A  26CF  120A  118A  	fcall	__Umul8_16
  1578  061E  0871               	movf	?__Umul8_16+1,w
  1579  061F  1283               	bcf	3,5	;RP0=0, select bank0
  1580  0620  1303               	bcf	3,6	;RP1=0, select bank0
  1581  0621  00E3               	movwf	___flmul@temp+1
  1582  0622  0870               	movf	?__Umul8_16,w
  1583  0623  00E2               	movwf	___flmul@temp
  1584  0624                     l1429:
  1585  0624  0862               	movf	___flmul@temp,w
  1586  0625  00D2               	movwf	??___flmul
  1587  0626  0863               	movf	___flmul@temp+1,w
  1588  0627  00D3               	movwf	??___flmul+1
  1589  0628  01D4               	clrf	??___flmul+2
  1590  0629  01D5               	clrf	??___flmul+3
  1591  062A  0852               	movf	??___flmul,w
  1592  062B  07D8               	addwf	___flmul@grs,f
  1593  062C  0853               	movf	??___flmul+1,w
  1594  062D  1103               	clrz
  1595  062E  1803               	skipnc
  1596  062F  3E01               	addlw	1
  1597  0630  1903               	skipnz
  1598  0631  2E33               	goto	u1811
  1599  0632  07D9               	addwf	___flmul@grs+1,f
  1600  0633                     u1811:
  1601  0633  0854               	movf	??___flmul+2,w
  1602  0634  1103               	clrz
  1603  0635  1803               	skipnc
  1604  0636  3E01               	addlw	1
  1605  0637  1903               	skipnz
  1606  0638  2E3A               	goto	u1812
  1607  0639  07DA               	addwf	___flmul@grs+2,f
  1608  063A                     u1812:
  1609  063A  0855               	movf	??___flmul+3,w
  1610  063B  1103               	clrz
  1611  063C  1803               	skipnc
  1612  063D  3E01               	addlw	1
  1613  063E  1903               	skipnz
  1614  063F  2E41               	goto	u1813
  1615  0640  07DB               	addwf	___flmul@grs+3,f
  1616  0641                     u1813:
  1617  0641                     l1431:
  1618  0641  084B               	movf	___flmul@b+1,w
  1619  0642  00D2               	movwf	??___flmul
  1620  0643  0852               	movf	??___flmul,w
  1621  0644  00F0               	movwf	__Umul8_16@multiplicand
  1622  0645  0850               	movf	___flmul@a+2,w
  1623  0646  120A  158A  26CF  120A  118A  	fcall	__Umul8_16
  1624  064B  0871               	movf	?__Umul8_16+1,w
  1625  064C  1283               	bcf	3,5	;RP0=0, select bank0
  1626  064D  1303               	bcf	3,6	;RP1=0, select bank0
  1627  064E  00E3               	movwf	___flmul@temp+1
  1628  064F  0870               	movf	?__Umul8_16,w
  1629  0650  00E2               	movwf	___flmul@temp
  1630  0651  0862               	movf	___flmul@temp,w
  1631  0652  00D2               	movwf	??___flmul
  1632  0653  0863               	movf	___flmul@temp+1,w
  1633  0654  00D3               	movwf	??___flmul+1
  1634  0655  01D4               	clrf	??___flmul+2
  1635  0656  01D5               	clrf	??___flmul+3
  1636  0657  0852               	movf	??___flmul,w
  1637  0658  07DE               	addwf	___flmul@prod,f
  1638  0659  0853               	movf	??___flmul+1,w
  1639  065A  1103               	clrz
  1640  065B  1803               	skipnc
  1641  065C  3E01               	addlw	1
  1642  065D  1903               	skipnz
  1643  065E  2E60               	goto	u1821
  1644  065F  07DF               	addwf	___flmul@prod+1,f
  1645  0660                     u1821:
  1646  0660  0854               	movf	??___flmul+2,w
  1647  0661  1103               	clrz
  1648  0662  1803               	skipnc
  1649  0663  3E01               	addlw	1
  1650  0664  1903               	skipnz
  1651  0665  2E67               	goto	u1822
  1652  0666  07E0               	addwf	___flmul@prod+2,f
  1653  0667                     u1822:
  1654  0667  0855               	movf	??___flmul+3,w
  1655  0668  1103               	clrz
  1656  0669  1803               	skipnc
  1657  066A  3E01               	addlw	1
  1658  066B  1903               	skipnz
  1659  066C  2E6E               	goto	u1823
  1660  066D  07E1               	addwf	___flmul@prod+3,f
  1661  066E                     u1823:
  1662  066E                     l1433:
  1663  066E  084C               	movf	___flmul@b+2,w
  1664  066F  00D2               	movwf	??___flmul
  1665  0670  0852               	movf	??___flmul,w
  1666  0671  00F0               	movwf	__Umul8_16@multiplicand
  1667  0672  084F               	movf	___flmul@a+1,w
  1668  0673  120A  158A  26CF  120A  118A  	fcall	__Umul8_16
  1669  0678  0871               	movf	?__Umul8_16+1,w
  1670  0679  1283               	bcf	3,5	;RP0=0, select bank0
  1671  067A  1303               	bcf	3,6	;RP1=0, select bank0
  1672  067B  00E3               	movwf	___flmul@temp+1
  1673  067C  0870               	movf	?__Umul8_16,w
  1674  067D  00E2               	movwf	___flmul@temp
  1675  067E                     l1435:
  1676  067E  0862               	movf	___flmul@temp,w
  1677  067F  00D2               	movwf	??___flmul
  1678  0680  0863               	movf	___flmul@temp+1,w
  1679  0681  00D3               	movwf	??___flmul+1
  1680  0682  01D4               	clrf	??___flmul+2
  1681  0683  01D5               	clrf	??___flmul+3
  1682  0684  0852               	movf	??___flmul,w
  1683  0685  07DE               	addwf	___flmul@prod,f
  1684  0686  0853               	movf	??___flmul+1,w
  1685  0687  1103               	clrz
  1686  0688  1803               	skipnc
  1687  0689  3E01               	addlw	1
  1688  068A  1903               	skipnz
  1689  068B  2E8D               	goto	u1831
  1690  068C  07DF               	addwf	___flmul@prod+1,f
  1691  068D                     u1831:
  1692  068D  0854               	movf	??___flmul+2,w
  1693  068E  1103               	clrz
  1694  068F  1803               	skipnc
  1695  0690  3E01               	addlw	1
  1696  0691  1903               	skipnz
  1697  0692  2E94               	goto	u1832
  1698  0693  07E0               	addwf	___flmul@prod+2,f
  1699  0694                     u1832:
  1700  0694  0855               	movf	??___flmul+3,w
  1701  0695  1103               	clrz
  1702  0696  1803               	skipnc
  1703  0697  3E01               	addlw	1
  1704  0698  1903               	skipnz
  1705  0699  2E9B               	goto	u1833
  1706  069A  07E1               	addwf	___flmul@prod+3,f
  1707  069B                     u1833:
  1708  069B  084C               	movf	___flmul@b+2,w
  1709  069C  00D2               	movwf	??___flmul
  1710  069D  0852               	movf	??___flmul,w
  1711  069E  00F0               	movwf	__Umul8_16@multiplicand
  1712  069F  0850               	movf	___flmul@a+2,w
  1713  06A0  120A  158A  26CF  120A  118A  	fcall	__Umul8_16
  1714  06A5  0871               	movf	?__Umul8_16+1,w
  1715  06A6  1283               	bcf	3,5	;RP0=0, select bank0
  1716  06A7  1303               	bcf	3,6	;RP1=0, select bank0
  1717  06A8  00E3               	movwf	___flmul@temp+1
  1718  06A9  0870               	movf	?__Umul8_16,w
  1719  06AA  00E2               	movwf	___flmul@temp
  1720  06AB                     l1437:
  1721  06AB  0862               	movf	___flmul@temp,w
  1722  06AC  00D2               	movwf	??___flmul
  1723  06AD  0863               	movf	___flmul@temp+1,w
  1724  06AE  00D3               	movwf	??___flmul+1
  1725  06AF  01D4               	clrf	??___flmul+2
  1726  06B0  01D5               	clrf	??___flmul+3
  1727  06B1  3008               	movlw	8
  1728  06B2                     u1845:
  1729  06B2  1003               	clrc
  1730  06B3  0DD2               	rlf	??___flmul,f
  1731  06B4  0DD3               	rlf	??___flmul+1,f
  1732  06B5  0DD4               	rlf	??___flmul+2,f
  1733  06B6  0DD5               	rlf	??___flmul+3,f
  1734  06B7                     u1840:
  1735  06B7  3EFF               	addlw	-1
  1736  06B8  1D03               	skipz
  1737  06B9  2EB2               	goto	u1845
  1738  06BA  0852               	movf	??___flmul,w
  1739  06BB  07DE               	addwf	___flmul@prod,f
  1740  06BC  0853               	movf	??___flmul+1,w
  1741  06BD  1103               	clrz
  1742  06BE  1803               	skipnc
  1743  06BF  3E01               	addlw	1
  1744  06C0  1903               	skipnz
  1745  06C1  2EC3               	goto	u1851
  1746  06C2  07DF               	addwf	___flmul@prod+1,f
  1747  06C3                     u1851:
  1748  06C3  0854               	movf	??___flmul+2,w
  1749  06C4  1103               	clrz
  1750  06C5  1803               	skipnc
  1751  06C6  3E01               	addlw	1
  1752  06C7  1903               	skipnz
  1753  06C8  2ECA               	goto	u1852
  1754  06C9  07E0               	addwf	___flmul@prod+2,f
  1755  06CA                     u1852:
  1756  06CA  0855               	movf	??___flmul+3,w
  1757  06CB  1103               	clrz
  1758  06CC  1803               	skipnc
  1759  06CD  3E01               	addlw	1
  1760  06CE  1903               	skipnz
  1761  06CF  2ED1               	goto	u1853
  1762  06D0  07E1               	addwf	___flmul@prod+3,f
  1763  06D1                     u1853:
  1764  06D1                     l1439:
  1765  06D1  0858               	movf	___flmul@grs,w
  1766  06D2  00D2               	movwf	??___flmul
  1767  06D3  0859               	movf	___flmul@grs+1,w
  1768  06D4  00D3               	movwf	??___flmul+1
  1769  06D5  085A               	movf	___flmul@grs+2,w
  1770  06D6  00D4               	movwf	??___flmul+2
  1771  06D7  085B               	movf	___flmul@grs+3,w
  1772  06D8  00D5               	movwf	??___flmul+3
  1773  06D9  3018               	movlw	24
  1774  06DA                     u1865:
  1775  06DA  1003               	clrc
  1776  06DB  0CD5               	rrf	??___flmul+3,f
  1777  06DC  0CD4               	rrf	??___flmul+2,f
  1778  06DD  0CD3               	rrf	??___flmul+1,f
  1779  06DE  0CD2               	rrf	??___flmul,f
  1780  06DF                     u1860:
  1781  06DF  3EFF               	addlw	-1
  1782  06E0  1D03               	skipz
  1783  06E1  2EDA               	goto	u1865
  1784  06E2  0852               	movf	??___flmul,w
  1785  06E3  07DE               	addwf	___flmul@prod,f
  1786  06E4  0853               	movf	??___flmul+1,w
  1787  06E5  1103               	clrz
  1788  06E6  1803               	skipnc
  1789  06E7  3E01               	addlw	1
  1790  06E8  1903               	skipnz
  1791  06E9  2EEB               	goto	u1871
  1792  06EA  07DF               	addwf	___flmul@prod+1,f
  1793  06EB                     u1871:
  1794  06EB  0854               	movf	??___flmul+2,w
  1795  06EC  1103               	clrz
  1796  06ED  1803               	skipnc
  1797  06EE  3E01               	addlw	1
  1798  06EF  1903               	skipnz
  1799  06F0  2EF2               	goto	u1872
  1800  06F1  07E0               	addwf	___flmul@prod+2,f
  1801  06F2                     u1872:
  1802  06F2  0855               	movf	??___flmul+3,w
  1803  06F3  1103               	clrz
  1804  06F4  1803               	skipnc
  1805  06F5  3E01               	addlw	1
  1806  06F6  1903               	skipnz
  1807  06F7  2EF9               	goto	u1873
  1808  06F8  07E1               	addwf	___flmul@prod+3,f
  1809  06F9                     u1873:
  1810  06F9                     l1441:
  1811  06F9  3008               	movlw	8
  1812  06FA  00D2               	movwf	??___flmul
  1813  06FB                     u1885:
  1814  06FB  1003               	clrc
  1815  06FC  0DD8               	rlf	___flmul@grs,f
  1816  06FD  0DD9               	rlf	___flmul@grs+1,f
  1817  06FE  0DDA               	rlf	___flmul@grs+2,f
  1818  06FF  0DDB               	rlf	___flmul@grs+3,f
  1819  0700  0BD2               	decfsz	??___flmul,f
  1820  0701  2EFB               	goto	u1885
  1821  0702                     l1443:
  1822  0702  085D               	movf	___flmul@bexp,w
  1823  0703  075C               	addwf	___flmul@aexp,w
  1824  0704  00D2               	movwf	??___flmul
  1825  0705  01D3               	clrf	??___flmul+1
  1826  0706  0DD3               	rlf	??___flmul+1,f
  1827  0707  0852               	movf	??___flmul,w
  1828  0708  3E82               	addlw	130
  1829  0709  00E2               	movwf	___flmul@temp
  1830  070A  0853               	movf	??___flmul+1,w
  1831  070B  1803               	skipnc
  1832  070C  3E01               	addlw	1
  1833  070D  3EFF               	addlw	255
  1834  070E  00E3               	movwf	___flmul@temp+1
  1835  070F  2F2D               	goto	l1455
  1836  0710                     l1445:
  1837  0710  3001               	movlw	1
  1838  0711  00D2               	movwf	??___flmul
  1839  0712                     u1895:
  1840  0712  1003               	clrc
  1841  0713  0DDE               	rlf	___flmul@prod,f
  1842  0714  0DDF               	rlf	___flmul@prod+1,f
  1843  0715  0DE0               	rlf	___flmul@prod+2,f
  1844  0716  0DE1               	rlf	___flmul@prod+3,f
  1845  0717  0BD2               	decfsz	??___flmul,f
  1846  0718  2F12               	goto	u1895
  1847  0719                     l1447:
  1848  0719  1FDB               	btfss	___flmul@grs+3,7
  1849  071A  2F1C               	goto	u1901
  1850  071B  2F1D               	goto	u1900
  1851  071C                     u1901:
  1852  071C  2F1E               	goto	l1451
  1853  071D                     u1900:
  1854  071D                     l1449:
  1855  071D  145E               	bsf	___flmul@prod,0
  1856  071E                     l1451:
  1857  071E  3001               	movlw	1
  1858  071F  00D2               	movwf	??___flmul
  1859  0720                     u1915:
  1860  0720  1003               	clrc
  1861  0721  0DD8               	rlf	___flmul@grs,f
  1862  0722  0DD9               	rlf	___flmul@grs+1,f
  1863  0723  0DDA               	rlf	___flmul@grs+2,f
  1864  0724  0DDB               	rlf	___flmul@grs+3,f
  1865  0725  0BD2               	decfsz	??___flmul,f
  1866  0726  2F20               	goto	u1915
  1867  0727                     l1453:
  1868  0727  30FF               	movlw	255
  1869  0728  07E2               	addwf	___flmul@temp,f
  1870  0729  1803               	skipnc
  1871  072A  0AE3               	incf	___flmul@temp+1,f
  1872  072B  30FF               	movlw	255
  1873  072C  07E3               	addwf	___flmul@temp+1,f
  1874  072D                     l1455:
  1875  072D  1FE0               	btfss	___flmul@prod+2,7
  1876  072E  2F30               	goto	u1921
  1877  072F  2F31               	goto	u1920
  1878  0730                     u1921:
  1879  0730  2F10               	goto	l1445
  1880  0731                     u1920:
  1881  0731                     l1457:
  1882  0731  01DC               	clrf	___flmul@aexp
  1883  0732                     l1459:
  1884  0732  1FDB               	btfss	___flmul@grs+3,7
  1885  0733  2F35               	goto	u1931
  1886  0734  2F36               	goto	u1930
  1887  0735                     u1931:
  1888  0735  2F52               	goto	l1467
  1889  0736                     u1930:
  1890  0736                     l1461:
  1891  0736  30FF               	movlw	255
  1892  0737  0558               	andwf	___flmul@grs,w
  1893  0738  00D2               	movwf	??___flmul
  1894  0739  30FF               	movlw	255
  1895  073A  0559               	andwf	___flmul@grs+1,w
  1896  073B  00D3               	movwf	??___flmul+1
  1897  073C  30FF               	movlw	255
  1898  073D  055A               	andwf	___flmul@grs+2,w
  1899  073E  00D4               	movwf	??___flmul+2
  1900  073F  307F               	movlw	127
  1901  0740  055B               	andwf	___flmul@grs+3,w
  1902  0741  00D5               	movwf	??___flmul+3
  1903  0742  0855               	movf	??___flmul+3,w
  1904  0743  0454               	iorwf	??___flmul+2,w
  1905  0744  0453               	iorwf	??___flmul+1,w
  1906  0745  0452               	iorwf	??___flmul,w
  1907  0746  1903               	skipnz
  1908  0747  2F49               	goto	u1941
  1909  0748  2F4A               	goto	u1940
  1910  0749                     u1941:
  1911  0749  2F4D               	goto	l542
  1912  074A                     u1940:
  1913  074A                     l1463:
  1914  074A  01DC               	clrf	___flmul@aexp
  1915  074B  0ADC               	incf	___flmul@aexp,f
  1916  074C  2F52               	goto	l1467
  1917  074D                     l542:
  1918  074D  1C5E               	btfss	___flmul@prod,0
  1919  074E  2F50               	goto	u1951
  1920  074F  2F51               	goto	u1950
  1921  0750                     u1951:
  1922  0750  2F52               	goto	l1467
  1923  0751                     u1950:
  1924  0751  2F4A               	goto	l1463
  1925  0752                     l1467:
  1926  0752  085C               	movf	___flmul@aexp,w
  1927  0753  1903               	btfsc	3,2
  1928  0754  2F56               	goto	u1961
  1929  0755  2F57               	goto	u1960
  1930  0756                     u1961:
  1931  0756  2F88               	goto	l1477
  1932  0757                     u1960:
  1933  0757                     l1469:
  1934  0757  3001               	movlw	1
  1935  0758  07DE               	addwf	___flmul@prod,f
  1936  0759  3000               	movlw	0
  1937  075A  1803               	skipnc
  1938  075B  3001               	movlw	1
  1939  075C  07DF               	addwf	___flmul@prod+1,f
  1940  075D  3000               	movlw	0
  1941  075E  1803               	skipnc
  1942  075F  3001               	movlw	1
  1943  0760  07E0               	addwf	___flmul@prod+2,f
  1944  0761  3000               	movlw	0
  1945  0762  1803               	skipnc
  1946  0763  3001               	movlw	1
  1947  0764  07E1               	addwf	___flmul@prod+3,f
  1948  0765                     l1471:
  1949  0765  1C61               	btfss	___flmul@prod+3,0
  1950  0766  2F68               	goto	u1971
  1951  0767  2F69               	goto	u1970
  1952  0768                     u1971:
  1953  0768  2F88               	goto	l1477
  1954  0769                     u1970:
  1955  0769                     l1473:
  1956  0769  085E               	movf	___flmul@prod,w
  1957  076A  00D2               	movwf	??___flmul
  1958  076B  085F               	movf	___flmul@prod+1,w
  1959  076C  00D3               	movwf	??___flmul+1
  1960  076D  0860               	movf	___flmul@prod+2,w
  1961  076E  00D4               	movwf	??___flmul+2
  1962  076F  0861               	movf	___flmul@prod+3,w
  1963  0770  00D5               	movwf	??___flmul+3
  1964  0771  3001               	movlw	1
  1965  0772  00D6               	movwf	??___flmul+4
  1966  0773                     u1985:
  1967  0773  0D55               	rlf	??___flmul+3,w
  1968  0774  0CD5               	rrf	??___flmul+3,f
  1969  0775  0CD4               	rrf	??___flmul+2,f
  1970  0776  0CD3               	rrf	??___flmul+1,f
  1971  0777  0CD2               	rrf	??___flmul,f
  1972  0778                     u1980:
  1973  0778  0BD6               	decfsz	??___flmul+4,f
  1974  0779  2F73               	goto	u1985
  1975  077A  0855               	movf	??___flmul+3,w
  1976  077B  00E1               	movwf	___flmul@prod+3
  1977  077C  0854               	movf	??___flmul+2,w
  1978  077D  00E0               	movwf	___flmul@prod+2
  1979  077E  0853               	movf	??___flmul+1,w
  1980  077F  00DF               	movwf	___flmul@prod+1
  1981  0780  0852               	movf	??___flmul,w
  1982  0781  00DE               	movwf	___flmul@prod
  1983  0782                     l1475:
  1984  0782  3001               	movlw	1
  1985  0783  07E2               	addwf	___flmul@temp,f
  1986  0784  1803               	skipnc
  1987  0785  0AE3               	incf	___flmul@temp+1,f
  1988  0786  3000               	movlw	0
  1989  0787  07E3               	addwf	___flmul@temp+1,f
  1990  0788                     l1477:
  1991  0788  0863               	movf	___flmul@temp+1,w
  1992  0789  3A80               	xorlw	128
  1993  078A  00FF               	movwf	btemp+1
  1994  078B  3080               	movlw	128
  1995  078C  027F               	subwf	btemp+1,w
  1996  078D  1D03               	skipz
  1997  078E  2F91               	goto	u1995
  1998  078F  30FF               	movlw	255
  1999  0790  0262               	subwf	___flmul@temp,w
  2000  0791                     u1995:
  2001  0791  1C03               	skipc
  2002  0792  2F94               	goto	u1991
  2003  0793  2F95               	goto	u1990
  2004  0794                     u1991:
  2005  0794  2FA0               	goto	l1481
  2006  0795                     u1990:
  2007  0795                     l1479:
  2008  0795  307F               	movlw	127
  2009  0796  1283               	bcf	3,5	;RP0=0, select bank0
  2010  0797  1303               	bcf	3,6	;RP1=0, select bank0
  2011  0798  00E1               	movwf	___flmul@prod+3
  2012  0799  3080               	movlw	128
  2013  079A  00E0               	movwf	___flmul@prod+2
  2014  079B  3000               	movlw	0
  2015  079C  00DF               	movwf	___flmul@prod+1
  2016  079D  3000               	movlw	0
  2017  079E  00DE               	movwf	___flmul@prod
  2018  079F  2FD5               	goto	l548
  2019  07A0                     l1481:
  2020  07A0  1283               	bcf	3,5	;RP0=0, select bank0
  2021  07A1  1303               	bcf	3,6	;RP1=0, select bank0
  2022  07A2  0863               	movf	___flmul@temp+1,w
  2023  07A3  3A80               	xorlw	128
  2024  07A4  00FF               	movwf	btemp+1
  2025  07A5  3080               	movlw	128
  2026  07A6  027F               	subwf	btemp+1,w
  2027  07A7  1D03               	skipz
  2028  07A8  2FAB               	goto	u2005
  2029  07A9  3001               	movlw	1
  2030  07AA  0262               	subwf	___flmul@temp,w
  2031  07AB                     u2005:
  2032  07AB  1803               	skipnc
  2033  07AC  2FAE               	goto	u2001
  2034  07AD  2FAF               	goto	u2000
  2035  07AE                     u2001:
  2036  07AE  2FBB               	goto	l1487
  2037  07AF                     u2000:
  2038  07AF                     l1483:
  2039  07AF  3000               	movlw	0
  2040  07B0  1283               	bcf	3,5	;RP0=0, select bank0
  2041  07B1  1303               	bcf	3,6	;RP1=0, select bank0
  2042  07B2  00E1               	movwf	___flmul@prod+3
  2043  07B3  3000               	movlw	0
  2044  07B4  00E0               	movwf	___flmul@prod+2
  2045  07B5  3000               	movlw	0
  2046  07B6  00DF               	movwf	___flmul@prod+1
  2047  07B7  3000               	movlw	0
  2048  07B8  00DE               	movwf	___flmul@prod
  2049  07B9                     l1485:
  2050  07B9  01D7               	clrf	___flmul@sign
  2051  07BA  2FD5               	goto	l548
  2052  07BB                     l1487:
  2053  07BB  1283               	bcf	3,5	;RP0=0, select bank0
  2054  07BC  1303               	bcf	3,6	;RP1=0, select bank0
  2055  07BD  0862               	movf	___flmul@temp,w
  2056  07BE  00D2               	movwf	??___flmul
  2057  07BF  0852               	movf	??___flmul,w
  2058  07C0  00DD               	movwf	___flmul@bexp
  2059  07C1  30FF               	movlw	255
  2060  07C2  05DE               	andwf	___flmul@prod,f
  2061  07C3  30FF               	movlw	255
  2062  07C4  05DF               	andwf	___flmul@prod+1,f
  2063  07C5  307F               	movlw	127
  2064  07C6  05E0               	andwf	___flmul@prod+2,f
  2065  07C7  3000               	movlw	0
  2066  07C8  05E1               	andwf	___flmul@prod+3,f
  2067  07C9                     l1489:
  2068  07C9  1C5D               	btfss	___flmul@bexp,0
  2069  07CA  2FCC               	goto	u2011
  2070  07CB  2FCD               	goto	u2010
  2071  07CC                     u2011:
  2072  07CC  2FCE               	goto	l1493
  2073  07CD                     u2010:
  2074  07CD                     l1491:
  2075  07CD  17E0               	bsf	___flmul@prod+2,7
  2076  07CE                     l1493:
  2077  07CE  085D               	movf	___flmul@bexp,w
  2078  07CF  00D2               	movwf	??___flmul
  2079  07D0  1003               	clrc
  2080  07D1  0C52               	rrf	??___flmul,w
  2081  07D2  00D3               	movwf	??___flmul+1
  2082  07D3  0853               	movf	??___flmul+1,w
  2083  07D4  00E1               	movwf	___flmul@prod+3
  2084  07D5                     l548:
  2085  07D5  0857               	movf	___flmul@sign,w
  2086  07D6  00D2               	movwf	??___flmul
  2087  07D7  0852               	movf	??___flmul,w
  2088  07D8  04E1               	iorwf	___flmul@prod+3,f
  2089  07D9                     l1495:
  2090  07D9  0861               	movf	___flmul@prod+3,w
  2091  07DA  00CD               	movwf	?___flmul+3
  2092  07DB  0860               	movf	___flmul@prod+2,w
  2093  07DC  00CC               	movwf	?___flmul+2
  2094  07DD  085F               	movf	___flmul@prod+1,w
  2095  07DE  00CB               	movwf	?___flmul+1
  2096  07DF  085E               	movf	___flmul@prod,w
  2097  07E0  00CA               	movwf	?___flmul
  2098  07E1                     l536:
  2099  07E1  0008               	return
  2100  07E2                     __end_of___flmul:
  2101                           
  2102                           	psect	text4
  2103  0ECF                     __ptext4:	
  2104 ;; *************** function __Umul8_16 *****************
  2105 ;; Defined at:
  2106 ;;		line 4 in file "C:\Program Files\Microchip\xc8\v2.31\pic\sources\c90\common\Umul8_16.c"
  2107 ;; Parameters:    Size  Location     Type
  2108 ;;  multiplier      1    wreg     unsigned char 
  2109 ;;  multiplicand    1    0[COMMON] unsigned char 
  2110 ;; Auto vars:     Size  Location     Type
  2111 ;;  multiplier      1    8[COMMON] unsigned char 
  2112 ;;  word_mpld       2    6[COMMON] unsigned int 
  2113 ;;  product         2    4[COMMON] unsigned int 
  2114 ;; Return value:  Size  Location     Type
  2115 ;;                  2    0[COMMON] unsigned int 
  2116 ;; Registers used:
  2117 ;;		wreg, status,2, status,0
  2118 ;; Tracked objects:
  2119 ;;		On entry : 0/0
  2120 ;;		On exit  : 0/0
  2121 ;;		Unchanged: 0/0
  2122 ;; Data sizes:     COMMON   BANK0   BANK1   BANK3   BANK2
  2123 ;;      Params:         2       0       0       0       0
  2124 ;;      Locals:         5       0       0       0       0
  2125 ;;      Temps:          2       0       0       0       0
  2126 ;;      Totals:         9       0       0       0       0
  2127 ;;Total ram usage:        9 bytes
  2128 ;; Hardware stack levels used:    1
  2129 ;; This function calls:
  2130 ;;		Nothing
  2131 ;; This function is called by:
  2132 ;;		___flmul
  2133 ;; This function uses a non-reentrant model
  2134 ;;
  2135                           
  2136                           
  2137                           ;psect for function __Umul8_16
  2138  0ECF                     __Umul8_16:
  2139                           
  2140                           ;incstack = 0
  2141                           ; Regs used in __Umul8_16: [wreg+status,2+status,0]
  2142                           ;__Umul8_16@multiplier stored from wreg
  2143  0ECF  00F8               	movwf	__Umul8_16@multiplier
  2144  0ED0                     l1127:
  2145  0ED0  01F4               	clrf	__Umul8_16@product
  2146  0ED1  01F5               	clrf	__Umul8_16@product+1
  2147  0ED2                     l1129:
  2148  0ED2  0870               	movf	__Umul8_16@multiplicand,w
  2149  0ED3  00F2               	movwf	??__Umul8_16
  2150  0ED4  01F3               	clrf	??__Umul8_16+1
  2151  0ED5  0872               	movf	??__Umul8_16,w
  2152  0ED6  00F6               	movwf	__Umul8_16@word_mpld
  2153  0ED7  0873               	movf	??__Umul8_16+1,w
  2154  0ED8  00F7               	movwf	__Umul8_16@word_mpld+1
  2155  0ED9                     l1131:
  2156  0ED9  1C78               	btfss	__Umul8_16@multiplier,0
  2157  0EDA  2EDC               	goto	u1131
  2158  0EDB  2EDD               	goto	u1130
  2159  0EDC                     u1131:
  2160  0EDC  2EE3               	goto	l555
  2161  0EDD                     u1130:
  2162  0EDD                     l1133:
  2163  0EDD  0876               	movf	__Umul8_16@word_mpld,w
  2164  0EDE  07F4               	addwf	__Umul8_16@product,f
  2165  0EDF  1803               	skipnc
  2166  0EE0  0AF5               	incf	__Umul8_16@product+1,f
  2167  0EE1  0877               	movf	__Umul8_16@word_mpld+1,w
  2168  0EE2  07F5               	addwf	__Umul8_16@product+1,f
  2169  0EE3                     l555:
  2170  0EE3  3001               	movlw	1
  2171  0EE4                     u1145:
  2172  0EE4  1003               	clrc
  2173  0EE5  0DF6               	rlf	__Umul8_16@word_mpld,f
  2174  0EE6  0DF7               	rlf	__Umul8_16@word_mpld+1,f
  2175  0EE7  3EFF               	addlw	-1
  2176  0EE8  1D03               	skipz
  2177  0EE9  2EE4               	goto	u1145
  2178  0EEA  1003               	clrc
  2179  0EEB  0CF8               	rrf	__Umul8_16@multiplier,f
  2180  0EEC                     l1135:
  2181  0EEC  0878               	movf	__Umul8_16@multiplier,w
  2182  0EED  1D03               	btfss	3,2
  2183  0EEE  2EF0               	goto	u1151
  2184  0EEF  2EF1               	goto	u1150
  2185  0EF0                     u1151:
  2186  0EF0  2ED9               	goto	l1131
  2187  0EF1                     u1150:
  2188  0EF1                     l1137:
  2189  0EF1  0875               	movf	__Umul8_16@product+1,w
  2190  0EF2  00F1               	movwf	?__Umul8_16+1
  2191  0EF3  0874               	movf	__Umul8_16@product,w
  2192  0EF4  00F0               	movwf	?__Umul8_16
  2193  0EF5                     l557:
  2194  0EF5  0008               	return
  2195  0EF6                     __end_of__Umul8_16:
  2196                           
  2197                           	psect	text5
  2198  02A4                     __ptext5:	
  2199 ;; *************** function ___fldiv *****************
  2200 ;; Defined at:
  2201 ;;		line 8 in file "C:\Program Files\Microchip\xc8\v2.31\pic\sources\c90\common\sprcdiv.c"
  2202 ;; Parameters:    Size  Location     Type
  2203 ;;  a               4   16[BANK0 ] unsigned int 
  2204 ;;  b               4   20[BANK0 ] unsigned int 
  2205 ;; Auto vars:     Size  Location     Type
  2206 ;;  grs             4   36[BANK0 ] unsigned long 
  2207 ;;  rem             4   29[BANK0 ] unsigned long 
  2208 ;;  new_exp         2   34[BANK0 ] int 
  2209 ;;  aexp            1   41[BANK0 ] unsigned char 
  2210 ;;  bexp            1   40[BANK0 ] unsigned char 
  2211 ;;  sign            1   33[BANK0 ] unsigned char 
  2212 ;; Return value:  Size  Location     Type
  2213 ;;                  4   16[BANK0 ] unsigned char 
  2214 ;; Registers used:
  2215 ;;		wreg, status,2, status,0, btemp+1
  2216 ;; Tracked objects:
  2217 ;;		On entry : 0/0
  2218 ;;		On exit  : 0/0
  2219 ;;		Unchanged: 0/0
  2220 ;; Data sizes:     COMMON   BANK0   BANK1   BANK3   BANK2
  2221 ;;      Params:         0       8       0       0       0
  2222 ;;      Locals:         0      13       0       0       0
  2223 ;;      Temps:          0       5       0       0       0
  2224 ;;      Totals:         0      26       0       0       0
  2225 ;;Total ram usage:       26 bytes
  2226 ;; Hardware stack levels used:    1
  2227 ;; This function calls:
  2228 ;;		Nothing
  2229 ;; This function is called by:
  2230 ;;		_PWM_dutyCycle
  2231 ;; This function uses a non-reentrant model
  2232 ;;
  2233                           
  2234                           
  2235                           ;psect for function ___fldiv
  2236  02A4                     ___fldiv:
  2237  02A4                     l1217:	
  2238                           ;incstack = 0
  2239                           ; Regs used in ___fldiv: [wreg+status,2+status,0+btemp+1]
  2240                           
  2241  02A4  1283               	bcf	3,5	;RP0=0, select bank0
  2242  02A5  1303               	bcf	3,6	;RP1=0, select bank0
  2243  02A6  0837               	movf	___fldiv@b+3,w
  2244  02A7  3980               	andlw	128
  2245  02A8  00B8               	movwf	??___fldiv
  2246  02A9  0838               	movf	??___fldiv,w
  2247  02AA  00C1               	movwf	___fldiv@sign
  2248  02AB                     l1219:
  2249  02AB  0837               	movf	___fldiv@b+3,w
  2250  02AC  00B8               	movwf	??___fldiv
  2251  02AD  0738               	addwf	??___fldiv,w
  2252  02AE  00B9               	movwf	??___fldiv+1
  2253  02AF  0839               	movf	??___fldiv+1,w
  2254  02B0  00C8               	movwf	___fldiv@bexp
  2255  02B1                     l1221:
  2256  02B1  1FB6               	btfss	___fldiv@b+2,7
  2257  02B2  2AB4               	goto	u1361
  2258  02B3  2AB5               	goto	u1360
  2259  02B4                     u1361:
  2260  02B4  2AB6               	goto	l1225
  2261  02B5                     u1360:
  2262  02B5                     l1223:
  2263  02B5  1448               	bsf	___fldiv@bexp,0
  2264  02B6                     l1225:
  2265  02B6  0848               	movf	___fldiv@bexp,w
  2266  02B7  1903               	btfsc	3,2
  2267  02B8  2ABA               	goto	u1371
  2268  02B9  2ABB               	goto	u1370
  2269  02BA                     u1371:
  2270  02BA  2ACB               	goto	l1235
  2271  02BB                     u1370:
  2272  02BB                     l1227:
  2273  02BB  0A48               	incf	___fldiv@bexp,w
  2274  02BC  1D03               	btfss	3,2
  2275  02BD  2ABF               	goto	u1381
  2276  02BE  2AC0               	goto	u1380
  2277  02BF                     u1381:
  2278  02BF  2AC8               	goto	l1231
  2279  02C0                     u1380:
  2280  02C0                     l1229:
  2281  02C0  3000               	movlw	0
  2282  02C1  00B7               	movwf	___fldiv@b+3
  2283  02C2  3000               	movlw	0
  2284  02C3  00B6               	movwf	___fldiv@b+2
  2285  02C4  3000               	movlw	0
  2286  02C5  00B5               	movwf	___fldiv@b+1
  2287  02C6  3000               	movlw	0
  2288  02C7  00B4               	movwf	___fldiv@b
  2289  02C8                     l1231:
  2290  02C8  17B6               	bsf	___fldiv@b+2,7
  2291  02C9                     l1233:
  2292  02C9  01B7               	clrf	___fldiv@b+3
  2293  02CA  2AD3               	goto	l1237
  2294  02CB                     l1235:
  2295  02CB  3000               	movlw	0
  2296  02CC  00B7               	movwf	___fldiv@b+3
  2297  02CD  3000               	movlw	0
  2298  02CE  00B6               	movwf	___fldiv@b+2
  2299  02CF  3000               	movlw	0
  2300  02D0  00B5               	movwf	___fldiv@b+1
  2301  02D1  3000               	movlw	0
  2302  02D2  00B4               	movwf	___fldiv@b
  2303  02D3                     l1237:
  2304  02D3  0833               	movf	___fldiv@a+3,w
  2305  02D4  3980               	andlw	128
  2306  02D5  00B8               	movwf	??___fldiv
  2307  02D6  0838               	movf	??___fldiv,w
  2308  02D7  06C1               	xorwf	___fldiv@sign,f
  2309  02D8                     l1239:
  2310  02D8  0833               	movf	___fldiv@a+3,w
  2311  02D9  00B8               	movwf	??___fldiv
  2312  02DA  0738               	addwf	??___fldiv,w
  2313  02DB  00B9               	movwf	??___fldiv+1
  2314  02DC  0839               	movf	??___fldiv+1,w
  2315  02DD  00C9               	movwf	___fldiv@aexp
  2316  02DE                     l1241:
  2317  02DE  1FB2               	btfss	___fldiv@a+2,7
  2318  02DF  2AE1               	goto	u1391
  2319  02E0  2AE2               	goto	u1390
  2320  02E1                     u1391:
  2321  02E1  2AE3               	goto	l1245
  2322  02E2                     u1390:
  2323  02E2                     l1243:
  2324  02E2  1449               	bsf	___fldiv@aexp,0
  2325  02E3                     l1245:
  2326  02E3  0849               	movf	___fldiv@aexp,w
  2327  02E4  1903               	btfsc	3,2
  2328  02E5  2AE7               	goto	u1401
  2329  02E6  2AE8               	goto	u1400
  2330  02E7                     u1401:
  2331  02E7  2AF8               	goto	l1255
  2332  02E8                     u1400:
  2333  02E8                     l1247:
  2334  02E8  0A49               	incf	___fldiv@aexp,w
  2335  02E9  1D03               	btfss	3,2
  2336  02EA  2AEC               	goto	u1411
  2337  02EB  2AED               	goto	u1410
  2338  02EC                     u1411:
  2339  02EC  2AF5               	goto	l1251
  2340  02ED                     u1410:
  2341  02ED                     l1249:
  2342  02ED  3000               	movlw	0
  2343  02EE  00B3               	movwf	___fldiv@a+3
  2344  02EF  3000               	movlw	0
  2345  02F0  00B2               	movwf	___fldiv@a+2
  2346  02F1  3000               	movlw	0
  2347  02F2  00B1               	movwf	___fldiv@a+1
  2348  02F3  3000               	movlw	0
  2349  02F4  00B0               	movwf	___fldiv@a
  2350  02F5                     l1251:
  2351  02F5  17B2               	bsf	___fldiv@a+2,7
  2352  02F6                     l1253:
  2353  02F6  01B3               	clrf	___fldiv@a+3
  2354  02F7  2B00               	goto	l496
  2355  02F8                     l1255:
  2356  02F8  3000               	movlw	0
  2357  02F9  00B3               	movwf	___fldiv@a+3
  2358  02FA  3000               	movlw	0
  2359  02FB  00B2               	movwf	___fldiv@a+2
  2360  02FC  3000               	movlw	0
  2361  02FD  00B1               	movwf	___fldiv@a+1
  2362  02FE  3000               	movlw	0
  2363  02FF  00B0               	movwf	___fldiv@a
  2364  0300                     l496:
  2365  0300  0833               	movf	___fldiv@a+3,w
  2366  0301  0432               	iorwf	___fldiv@a+2,w
  2367  0302  0431               	iorwf	___fldiv@a+1,w
  2368  0303  0430               	iorwf	___fldiv@a,w
  2369  0304  1D03               	skipz
  2370  0305  2B07               	goto	u1421
  2371  0306  2B08               	goto	u1420
  2372  0307                     u1421:
  2373  0307  2B21               	goto	l1265
  2374  0308                     u1420:
  2375  0308                     l1257:
  2376  0308  3000               	movlw	0
  2377  0309  00B7               	movwf	___fldiv@b+3
  2378  030A  3000               	movlw	0
  2379  030B  00B6               	movwf	___fldiv@b+2
  2380  030C  3000               	movlw	0
  2381  030D  00B5               	movwf	___fldiv@b+1
  2382  030E  3000               	movlw	0
  2383  030F  00B4               	movwf	___fldiv@b
  2384  0310  3080               	movlw	128
  2385  0311  04B6               	iorwf	___fldiv@b+2,f
  2386  0312  307F               	movlw	127
  2387  0313  04B7               	iorwf	___fldiv@b+3,f
  2388  0314                     l1259:
  2389  0314  0841               	movf	___fldiv@sign,w
  2390  0315  00B8               	movwf	??___fldiv
  2391  0316  0838               	movf	??___fldiv,w
  2392  0317  04B7               	iorwf	___fldiv@b+3,f
  2393  0318                     l1261:
  2394  0318  0837               	movf	___fldiv@b+3,w
  2395  0319  00B3               	movwf	?___fldiv+3
  2396  031A  0836               	movf	___fldiv@b+2,w
  2397  031B  00B2               	movwf	?___fldiv+2
  2398  031C  0835               	movf	___fldiv@b+1,w
  2399  031D  00B1               	movwf	?___fldiv+1
  2400  031E  0834               	movf	___fldiv@b,w
  2401  031F  00B0               	movwf	?___fldiv
  2402  0320  2C80               	goto	l498
  2403  0321                     l1265:
  2404  0321  0848               	movf	___fldiv@bexp,w
  2405  0322  1D03               	btfss	3,2
  2406  0323  2B25               	goto	u1431
  2407  0324  2B26               	goto	u1430
  2408  0325                     u1431:
  2409  0325  2B2F               	goto	l1271
  2410  0326                     u1430:
  2411  0326                     l1267:
  2412  0326  3000               	movlw	0
  2413  0327  00B3               	movwf	?___fldiv+3
  2414  0328  3000               	movlw	0
  2415  0329  00B2               	movwf	?___fldiv+2
  2416  032A  3000               	movlw	0
  2417  032B  00B1               	movwf	?___fldiv+1
  2418  032C  3000               	movlw	0
  2419  032D  00B0               	movwf	?___fldiv
  2420  032E  2C80               	goto	l498
  2421  032F                     l1271:
  2422  032F  0848               	movf	___fldiv@bexp,w
  2423  0330  00B8               	movwf	??___fldiv
  2424  0331  01B9               	clrf	??___fldiv+1
  2425  0332  0839               	movf	??___fldiv+1,w
  2426  0333  00BB               	movwf	??___fldiv+3
  2427  0334  0849               	movf	___fldiv@aexp,w
  2428  0335  0238               	subwf	??___fldiv,w
  2429  0336  00BA               	movwf	??___fldiv+2
  2430  0337  1C03               	skipc
  2431  0338  03BB               	decf	??___fldiv+3,f
  2432  0339  083A               	movf	??___fldiv+2,w
  2433  033A  3E7F               	addlw	127
  2434  033B  00C2               	movwf	___fldiv@new_exp
  2435  033C  083B               	movf	??___fldiv+3,w
  2436  033D  1803               	skipnc
  2437  033E  3E01               	addlw	1
  2438  033F  3E00               	addlw	0
  2439  0340  00C3               	movwf	___fldiv@new_exp+1
  2440  0341                     l1273:
  2441  0341  0837               	movf	___fldiv@b+3,w
  2442  0342  00C0               	movwf	___fldiv@rem+3
  2443  0343  0836               	movf	___fldiv@b+2,w
  2444  0344  00BF               	movwf	___fldiv@rem+2
  2445  0345  0835               	movf	___fldiv@b+1,w
  2446  0346  00BE               	movwf	___fldiv@rem+1
  2447  0347  0834               	movf	___fldiv@b,w
  2448  0348  00BD               	movwf	___fldiv@rem
  2449  0349                     l1275:
  2450  0349  3000               	movlw	0
  2451  034A  00B7               	movwf	___fldiv@b+3
  2452  034B  3000               	movlw	0
  2453  034C  00B6               	movwf	___fldiv@b+2
  2454  034D  3000               	movlw	0
  2455  034E  00B5               	movwf	___fldiv@b+1
  2456  034F  3000               	movlw	0
  2457  0350  00B4               	movwf	___fldiv@b
  2458  0351                     l1277:
  2459  0351  3000               	movlw	0
  2460  0352  00C7               	movwf	___fldiv@grs+3
  2461  0353  3000               	movlw	0
  2462  0354  00C6               	movwf	___fldiv@grs+2
  2463  0355  3000               	movlw	0
  2464  0356  00C5               	movwf	___fldiv@grs+1
  2465  0357  3000               	movlw	0
  2466  0358  00C4               	movwf	___fldiv@grs
  2467  0359                     l1279:
  2468  0359  01C9               	clrf	___fldiv@aexp
  2469  035A  2BA5               	goto	l1299
  2470  035B                     l1281:
  2471  035B  0849               	movf	___fldiv@aexp,w
  2472  035C  1903               	btfsc	3,2
  2473  035D  2B5F               	goto	u1441
  2474  035E  2B60               	goto	u1440
  2475  035F                     u1441:
  2476  035F  2B80               	goto	l1291
  2477  0360                     u1440:
  2478  0360                     l1283:
  2479  0360  3001               	movlw	1
  2480  0361  00B8               	movwf	??___fldiv
  2481  0362                     u1455:
  2482  0362  1003               	clrc
  2483  0363  0DBD               	rlf	___fldiv@rem,f
  2484  0364  0DBE               	rlf	___fldiv@rem+1,f
  2485  0365  0DBF               	rlf	___fldiv@rem+2,f
  2486  0366  0DC0               	rlf	___fldiv@rem+3,f
  2487  0367  0BB8               	decfsz	??___fldiv,f
  2488  0368  2B62               	goto	u1455
  2489  0369  3001               	movlw	1
  2490  036A  00B8               	movwf	??___fldiv
  2491  036B                     u1465:
  2492  036B  1003               	clrc
  2493  036C  0DB4               	rlf	___fldiv@b,f
  2494  036D  0DB5               	rlf	___fldiv@b+1,f
  2495  036E  0DB6               	rlf	___fldiv@b+2,f
  2496  036F  0DB7               	rlf	___fldiv@b+3,f
  2497  0370  0BB8               	decfsz	??___fldiv,f
  2498  0371  2B6B               	goto	u1465
  2499  0372                     l1285:
  2500  0372  1FC7               	btfss	___fldiv@grs+3,7
  2501  0373  2B75               	goto	u1471
  2502  0374  2B76               	goto	u1470
  2503  0375                     u1471:
  2504  0375  2B77               	goto	l1289
  2505  0376                     u1470:
  2506  0376                     l1287:
  2507  0376  1434               	bsf	___fldiv@b,0
  2508  0377                     l1289:
  2509  0377  3001               	movlw	1
  2510  0378  00B8               	movwf	??___fldiv
  2511  0379                     u1485:
  2512  0379  1003               	clrc
  2513  037A  0DC4               	rlf	___fldiv@grs,f
  2514  037B  0DC5               	rlf	___fldiv@grs+1,f
  2515  037C  0DC6               	rlf	___fldiv@grs+2,f
  2516  037D  0DC7               	rlf	___fldiv@grs+3,f
  2517  037E  0BB8               	decfsz	??___fldiv,f
  2518  037F  2B79               	goto	u1485
  2519  0380                     l1291:
  2520  0380  0833               	movf	___fldiv@a+3,w
  2521  0381  0240               	subwf	___fldiv@rem+3,w
  2522  0382  1D03               	skipz
  2523  0383  2B8E               	goto	u1495
  2524  0384  0832               	movf	___fldiv@a+2,w
  2525  0385  023F               	subwf	___fldiv@rem+2,w
  2526  0386  1D03               	skipz
  2527  0387  2B8E               	goto	u1495
  2528  0388  0831               	movf	___fldiv@a+1,w
  2529  0389  023E               	subwf	___fldiv@rem+1,w
  2530  038A  1D03               	skipz
  2531  038B  2B8E               	goto	u1495
  2532  038C  0830               	movf	___fldiv@a,w
  2533  038D  023D               	subwf	___fldiv@rem,w
  2534  038E                     u1495:
  2535  038E  1C03               	skipc
  2536  038F  2B91               	goto	u1491
  2537  0390  2B92               	goto	u1490
  2538  0391                     u1491:
  2539  0391  2BA1               	goto	l1297
  2540  0392                     u1490:
  2541  0392                     l1293:
  2542  0392  1747               	bsf	___fldiv@grs+3,6
  2543  0393                     l1295:
  2544  0393  0830               	movf	___fldiv@a,w
  2545  0394  02BD               	subwf	___fldiv@rem,f
  2546  0395  0831               	movf	___fldiv@a+1,w
  2547  0396  1C03               	skipc
  2548  0397  0F31               	incfsz	___fldiv@a+1,w
  2549  0398  02BE               	subwf	___fldiv@rem+1,f
  2550  0399  0832               	movf	___fldiv@a+2,w
  2551  039A  1C03               	skipc
  2552  039B  0F32               	incfsz	___fldiv@a+2,w
  2553  039C  02BF               	subwf	___fldiv@rem+2,f
  2554  039D  0833               	movf	___fldiv@a+3,w
  2555  039E  1C03               	skipc
  2556  039F  0F33               	incfsz	___fldiv@a+3,w
  2557  03A0  02C0               	subwf	___fldiv@rem+3,f
  2558  03A1                     l1297:
  2559  03A1  3001               	movlw	1
  2560  03A2  00B8               	movwf	??___fldiv
  2561  03A3  0838               	movf	??___fldiv,w
  2562  03A4  07C9               	addwf	___fldiv@aexp,f
  2563  03A5                     l1299:
  2564  03A5  301A               	movlw	26
  2565  03A6  0249               	subwf	___fldiv@aexp,w
  2566  03A7  1C03               	skipc
  2567  03A8  2BAA               	goto	u1501
  2568  03A9  2BAB               	goto	u1500
  2569  03AA                     u1501:
  2570  03AA  2B5B               	goto	l1281
  2571  03AB                     u1500:
  2572  03AB                     l1301:
  2573  03AB  0840               	movf	___fldiv@rem+3,w
  2574  03AC  043F               	iorwf	___fldiv@rem+2,w
  2575  03AD  043E               	iorwf	___fldiv@rem+1,w
  2576  03AE  043D               	iorwf	___fldiv@rem,w
  2577  03AF  1903               	skipnz
  2578  03B0  2BB2               	goto	u1511
  2579  03B1  2BB3               	goto	u1510
  2580  03B2                     u1511:
  2581  03B2  2BD2               	goto	l1315
  2582  03B3                     u1510:
  2583  03B3                     l1303:
  2584  03B3  1444               	bsf	___fldiv@grs,0
  2585  03B4  2BD2               	goto	l1315
  2586  03B5                     l1305:
  2587  03B5  3001               	movlw	1
  2588  03B6  00B8               	movwf	??___fldiv
  2589  03B7                     u1525:
  2590  03B7  1003               	clrc
  2591  03B8  0DB4               	rlf	___fldiv@b,f
  2592  03B9  0DB5               	rlf	___fldiv@b+1,f
  2593  03BA  0DB6               	rlf	___fldiv@b+2,f
  2594  03BB  0DB7               	rlf	___fldiv@b+3,f
  2595  03BC  0BB8               	decfsz	??___fldiv,f
  2596  03BD  2BB7               	goto	u1525
  2597  03BE                     l1307:
  2598  03BE  1FC7               	btfss	___fldiv@grs+3,7
  2599  03BF  2BC1               	goto	u1531
  2600  03C0  2BC2               	goto	u1530
  2601  03C1                     u1531:
  2602  03C1  2BC3               	goto	l1311
  2603  03C2                     u1530:
  2604  03C2                     l1309:
  2605  03C2  1434               	bsf	___fldiv@b,0
  2606  03C3                     l1311:
  2607  03C3  3001               	movlw	1
  2608  03C4  00B8               	movwf	??___fldiv
  2609  03C5                     u1545:
  2610  03C5  1003               	clrc
  2611  03C6  0DC4               	rlf	___fldiv@grs,f
  2612  03C7  0DC5               	rlf	___fldiv@grs+1,f
  2613  03C8  0DC6               	rlf	___fldiv@grs+2,f
  2614  03C9  0DC7               	rlf	___fldiv@grs+3,f
  2615  03CA  0BB8               	decfsz	??___fldiv,f
  2616  03CB  2BC5               	goto	u1545
  2617  03CC                     l1313:
  2618  03CC  30FF               	movlw	255
  2619  03CD  07C2               	addwf	___fldiv@new_exp,f
  2620  03CE  1803               	skipnc
  2621  03CF  0AC3               	incf	___fldiv@new_exp+1,f
  2622  03D0  30FF               	movlw	255
  2623  03D1  07C3               	addwf	___fldiv@new_exp+1,f
  2624  03D2                     l1315:
  2625  03D2  1FB6               	btfss	___fldiv@b+2,7
  2626  03D3  2BD5               	goto	u1551
  2627  03D4  2BD6               	goto	u1550
  2628  03D5                     u1551:
  2629  03D5  2BB5               	goto	l1305
  2630  03D6                     u1550:
  2631  03D6                     l1317:
  2632  03D6  01C9               	clrf	___fldiv@aexp
  2633  03D7                     l1319:
  2634  03D7  1FC7               	btfss	___fldiv@grs+3,7
  2635  03D8  2BDA               	goto	u1561
  2636  03D9  2BDB               	goto	u1560
  2637  03DA                     u1561:
  2638  03DA  2BF7               	goto	l1327
  2639  03DB                     u1560:
  2640  03DB                     l1321:
  2641  03DB  30FF               	movlw	255
  2642  03DC  0544               	andwf	___fldiv@grs,w
  2643  03DD  00B8               	movwf	??___fldiv
  2644  03DE  30FF               	movlw	255
  2645  03DF  0545               	andwf	___fldiv@grs+1,w
  2646  03E0  00B9               	movwf	??___fldiv+1
  2647  03E1  30FF               	movlw	255
  2648  03E2  0546               	andwf	___fldiv@grs+2,w
  2649  03E3  00BA               	movwf	??___fldiv+2
  2650  03E4  307F               	movlw	127
  2651  03E5  0547               	andwf	___fldiv@grs+3,w
  2652  03E6  00BB               	movwf	??___fldiv+3
  2653  03E7  083B               	movf	??___fldiv+3,w
  2654  03E8  043A               	iorwf	??___fldiv+2,w
  2655  03E9  0439               	iorwf	??___fldiv+1,w
  2656  03EA  0438               	iorwf	??___fldiv,w
  2657  03EB  1903               	skipnz
  2658  03EC  2BEE               	goto	u1571
  2659  03ED  2BEF               	goto	u1570
  2660  03EE                     u1571:
  2661  03EE  2BF2               	goto	l512
  2662  03EF                     u1570:
  2663  03EF                     l1323:
  2664  03EF  01C9               	clrf	___fldiv@aexp
  2665  03F0  0AC9               	incf	___fldiv@aexp,f
  2666  03F1  2BF7               	goto	l1327
  2667  03F2                     l512:
  2668  03F2  1C34               	btfss	___fldiv@b,0
  2669  03F3  2BF5               	goto	u1581
  2670  03F4  2BF6               	goto	u1580
  2671  03F5                     u1581:
  2672  03F5  2BF7               	goto	l1327
  2673  03F6                     u1580:
  2674  03F6  2BEF               	goto	l1323
  2675  03F7                     l1327:
  2676  03F7  0849               	movf	___fldiv@aexp,w
  2677  03F8  1903               	btfsc	3,2
  2678  03F9  2BFB               	goto	u1591
  2679  03FA  2BFC               	goto	u1590
  2680  03FB                     u1591:
  2681  03FB  2C2D               	goto	l1337
  2682  03FC                     u1590:
  2683  03FC                     l1329:
  2684  03FC  3001               	movlw	1
  2685  03FD  07B4               	addwf	___fldiv@b,f
  2686  03FE  3000               	movlw	0
  2687  03FF  1803               	skipnc
  2688  0400  3001               	movlw	1
  2689  0401  07B5               	addwf	___fldiv@b+1,f
  2690  0402  3000               	movlw	0
  2691  0403  1803               	skipnc
  2692  0404  3001               	movlw	1
  2693  0405  07B6               	addwf	___fldiv@b+2,f
  2694  0406  3000               	movlw	0
  2695  0407  1803               	skipnc
  2696  0408  3001               	movlw	1
  2697  0409  07B7               	addwf	___fldiv@b+3,f
  2698  040A                     l1331:
  2699  040A  1C37               	btfss	___fldiv@b+3,0
  2700  040B  2C0D               	goto	u1601
  2701  040C  2C0E               	goto	u1600
  2702  040D                     u1601:
  2703  040D  2C2D               	goto	l1337
  2704  040E                     u1600:
  2705  040E                     l1333:
  2706  040E  0834               	movf	___fldiv@b,w
  2707  040F  00B8               	movwf	??___fldiv
  2708  0410  0835               	movf	___fldiv@b+1,w
  2709  0411  00B9               	movwf	??___fldiv+1
  2710  0412  0836               	movf	___fldiv@b+2,w
  2711  0413  00BA               	movwf	??___fldiv+2
  2712  0414  0837               	movf	___fldiv@b+3,w
  2713  0415  00BB               	movwf	??___fldiv+3
  2714  0416  3001               	movlw	1
  2715  0417  00BC               	movwf	??___fldiv+4
  2716  0418                     u1615:
  2717  0418  0D3B               	rlf	??___fldiv+3,w
  2718  0419  0CBB               	rrf	??___fldiv+3,f
  2719  041A  0CBA               	rrf	??___fldiv+2,f
  2720  041B  0CB9               	rrf	??___fldiv+1,f
  2721  041C  0CB8               	rrf	??___fldiv,f
  2722  041D                     u1610:
  2723  041D  0BBC               	decfsz	??___fldiv+4,f
  2724  041E  2C18               	goto	u1615
  2725  041F  083B               	movf	??___fldiv+3,w
  2726  0420  00B7               	movwf	___fldiv@b+3
  2727  0421  083A               	movf	??___fldiv+2,w
  2728  0422  00B6               	movwf	___fldiv@b+2
  2729  0423  0839               	movf	??___fldiv+1,w
  2730  0424  00B5               	movwf	___fldiv@b+1
  2731  0425  0838               	movf	??___fldiv,w
  2732  0426  00B4               	movwf	___fldiv@b
  2733  0427                     l1335:
  2734  0427  3001               	movlw	1
  2735  0428  07C2               	addwf	___fldiv@new_exp,f
  2736  0429  1803               	skipnc
  2737  042A  0AC3               	incf	___fldiv@new_exp+1,f
  2738  042B  3000               	movlw	0
  2739  042C  07C3               	addwf	___fldiv@new_exp+1,f
  2740  042D                     l1337:
  2741  042D  0843               	movf	___fldiv@new_exp+1,w
  2742  042E  3A80               	xorlw	128
  2743  042F  00FF               	movwf	btemp+1
  2744  0430  3080               	movlw	128
  2745  0431  027F               	subwf	btemp+1,w
  2746  0432  1D03               	skipz
  2747  0433  2C36               	goto	u1625
  2748  0434  30FF               	movlw	255
  2749  0435  0242               	subwf	___fldiv@new_exp,w
  2750  0436                     u1625:
  2751  0436  1C03               	skipc
  2752  0437  2C39               	goto	u1621
  2753  0438  2C3A               	goto	u1620
  2754  0439                     u1621:
  2755  0439  2C48               	goto	l1341
  2756  043A                     u1620:
  2757  043A                     l1339:
  2758  043A  30FF               	movlw	255
  2759  043B  1283               	bcf	3,5	;RP0=0, select bank0
  2760  043C  1303               	bcf	3,6	;RP1=0, select bank0
  2761  043D  00C2               	movwf	___fldiv@new_exp
  2762  043E  3000               	movlw	0
  2763  043F  00C3               	movwf	___fldiv@new_exp+1
  2764  0440  3000               	movlw	0
  2765  0441  00B7               	movwf	___fldiv@b+3
  2766  0442  3000               	movlw	0
  2767  0443  00B6               	movwf	___fldiv@b+2
  2768  0444  3000               	movlw	0
  2769  0445  00B5               	movwf	___fldiv@b+1
  2770  0446  3000               	movlw	0
  2771  0447  00B4               	movwf	___fldiv@b
  2772  0448                     l1341:
  2773  0448  1283               	bcf	3,5	;RP0=0, select bank0
  2774  0449  1303               	bcf	3,6	;RP1=0, select bank0
  2775  044A  0843               	movf	___fldiv@new_exp+1,w
  2776  044B  3A80               	xorlw	128
  2777  044C  00FF               	movwf	btemp+1
  2778  044D  3080               	movlw	128
  2779  044E  027F               	subwf	btemp+1,w
  2780  044F  1D03               	skipz
  2781  0450  2C53               	goto	u1635
  2782  0451  3001               	movlw	1
  2783  0452  0242               	subwf	___fldiv@new_exp,w
  2784  0453                     u1635:
  2785  0453  1803               	skipnc
  2786  0454  2C56               	goto	u1631
  2787  0455  2C57               	goto	u1630
  2788  0456                     u1631:
  2789  0456  2C64               	goto	l518
  2790  0457                     u1630:
  2791  0457                     l1343:
  2792  0457  1283               	bcf	3,5	;RP0=0, select bank0
  2793  0458  1303               	bcf	3,6	;RP1=0, select bank0
  2794  0459  01C2               	clrf	___fldiv@new_exp
  2795  045A  01C3               	clrf	___fldiv@new_exp+1
  2796  045B                     l1345:
  2797  045B  3000               	movlw	0
  2798  045C  00B7               	movwf	___fldiv@b+3
  2799  045D  3000               	movlw	0
  2800  045E  00B6               	movwf	___fldiv@b+2
  2801  045F  3000               	movlw	0
  2802  0460  00B5               	movwf	___fldiv@b+1
  2803  0461  3000               	movlw	0
  2804  0462  00B4               	movwf	___fldiv@b
  2805  0463                     l1347:
  2806  0463  01C1               	clrf	___fldiv@sign
  2807  0464                     l518:
  2808  0464  1283               	bcf	3,5	;RP0=0, select bank0
  2809  0465  1303               	bcf	3,6	;RP1=0, select bank0
  2810  0466  0842               	movf	___fldiv@new_exp,w
  2811  0467  00B8               	movwf	??___fldiv
  2812  0468  0838               	movf	??___fldiv,w
  2813  0469  00C8               	movwf	___fldiv@bexp
  2814  046A                     l1349:
  2815  046A  1C48               	btfss	___fldiv@bexp,0
  2816  046B  2C6D               	goto	u1641
  2817  046C  2C6E               	goto	u1640
  2818  046D                     u1641:
  2819  046D  2C70               	goto	l1353
  2820  046E                     u1640:
  2821  046E                     l1351:
  2822  046E  17B6               	bsf	___fldiv@b+2,7
  2823  046F  2C74               	goto	l520
  2824  0470                     l1353:
  2825  0470  307F               	movlw	127
  2826  0471  00B8               	movwf	??___fldiv
  2827  0472  0838               	movf	??___fldiv,w
  2828  0473  05B6               	andwf	___fldiv@b+2,f
  2829  0474                     l520:
  2830  0474  0848               	movf	___fldiv@bexp,w
  2831  0475  00B8               	movwf	??___fldiv
  2832  0476  1003               	clrc
  2833  0477  0C38               	rrf	??___fldiv,w
  2834  0478  00B9               	movwf	??___fldiv+1
  2835  0479  0839               	movf	??___fldiv+1,w
  2836  047A  00B7               	movwf	___fldiv@b+3
  2837  047B  0841               	movf	___fldiv@sign,w
  2838  047C  00B8               	movwf	??___fldiv
  2839  047D  0838               	movf	??___fldiv,w
  2840  047E  04B7               	iorwf	___fldiv@b+3,f
  2841  047F  2B18               	goto	l1261
  2842  0480                     l498:
  2843  0480  0008               	return
  2844  0481                     __end_of___fldiv:
  2845                           
  2846                           	psect	text6
  2847  0EF6                     __ptext6:	
  2848 ;; *************** function _PWM1_Init *****************
  2849 ;; Defined at:
  2850 ;;		line 29 in file "pwm.c"
  2851 ;; Parameters:    Size  Location     Type
  2852 ;;		None
  2853 ;; Auto vars:     Size  Location     Type
  2854 ;;		None
  2855 ;; Return value:  Size  Location     Type
  2856 ;;                  1    wreg      void 
  2857 ;; Registers used:
  2858 ;;		wreg, status,2, status,0, pclath, cstack
  2859 ;; Tracked objects:
  2860 ;;		On entry : 0/0
  2861 ;;		On exit  : 0/0
  2862 ;;		Unchanged: 0/0
  2863 ;; Data sizes:     COMMON   BANK0   BANK1   BANK3   BANK2
  2864 ;;      Params:         0       0       0       0       0
  2865 ;;      Locals:         0       0       0       0       0
  2866 ;;      Temps:          4       0       0       0       0
  2867 ;;      Totals:         4       0       0       0       0
  2868 ;;Total ram usage:        4 bytes
  2869 ;; Hardware stack levels used:    1
  2870 ;; Hardware stack levels required when called:    1
  2871 ;; This function calls:
  2872 ;;		___aldiv
  2873 ;; This function is called by:
  2874 ;;		_main
  2875 ;; This function uses a non-reentrant model
  2876 ;;
  2877                           
  2878                           
  2879                           ;psect for function _PWM1_Init
  2880  0EF6                     _PWM1_Init:
  2881  0EF6                     l1543:	
  2882                           ;incstack = 0
  2883                           ; Regs used in _PWM1_Init: [wreg+status,2+status,0+pclath+cstack]
  2884                           
  2885                           
  2886                           ;pwm.c: 30:     PR2 = (8000000 /(PWM_freq * 4 * 4)) - 1;
  2887  0EF6  1683               	bsf	3,5	;RP0=1, select bank1
  2888  0EF7  1303               	bcf	3,6	;RP1=0, select bank1
  2889  0EF8  082E               	movf	_PWM_freq^(0+128),w
  2890  0EF9  00F9               	movwf	??_PWM1_Init
  2891  0EFA  082F               	movf	(_PWM_freq+1)^(0+128),w
  2892  0EFB  00FA               	movwf	??_PWM1_Init+1
  2893  0EFC  0830               	movf	(_PWM_freq+2)^(0+128),w
  2894  0EFD  00FB               	movwf	??_PWM1_Init+2
  2895  0EFE  0831               	movf	(_PWM_freq+3)^(0+128),w
  2896  0EFF  00FC               	movwf	??_PWM1_Init+3
  2897  0F00  3002               	movlw	2
  2898  0F01                     u2165:
  2899  0F01  1003               	clrc
  2900  0F02  0DF9               	rlf	??_PWM1_Init,f
  2901  0F03  0DFA               	rlf	??_PWM1_Init+1,f
  2902  0F04  0DFB               	rlf	??_PWM1_Init+2,f
  2903  0F05  0DFC               	rlf	??_PWM1_Init+3,f
  2904  0F06                     u2160:
  2905  0F06  3EFF               	addlw	-1
  2906  0F07  1D03               	skipz
  2907  0F08  2F01               	goto	u2165
  2908  0F09  3002               	movlw	2
  2909  0F0A                     u2175:
  2910  0F0A  1003               	clrc
  2911  0F0B  0DF9               	rlf	??_PWM1_Init,f
  2912  0F0C  0DFA               	rlf	??_PWM1_Init+1,f
  2913  0F0D  0DFB               	rlf	??_PWM1_Init+2,f
  2914  0F0E  0DFC               	rlf	??_PWM1_Init+3,f
  2915  0F0F                     u2170:
  2916  0F0F  3EFF               	addlw	-1
  2917  0F10  1D03               	skipz
  2918  0F11  2F0A               	goto	u2175
  2919  0F12  087C               	movf	??_PWM1_Init+3,w
  2920  0F13  00F3               	movwf	___aldiv@divisor+3
  2921  0F14  087B               	movf	??_PWM1_Init+2,w
  2922  0F15  00F2               	movwf	___aldiv@divisor+2
  2923  0F16  087A               	movf	??_PWM1_Init+1,w
  2924  0F17  00F1               	movwf	___aldiv@divisor+1
  2925  0F18  0879               	movf	??_PWM1_Init,w
  2926  0F19  00F0               	movwf	___aldiv@divisor
  2927  0F1A  3000               	movlw	0
  2928  0F1B  00F7               	movwf	___aldiv@dividend+3
  2929  0F1C  307A               	movlw	122
  2930  0F1D  00F6               	movwf	___aldiv@dividend+2
  2931  0F1E  3012               	movlw	18
  2932  0F1F  00F5               	movwf	___aldiv@dividend+1
  2933  0F20  3000               	movlw	0
  2934  0F21  00F4               	movwf	___aldiv@dividend
  2935  0F22  120A  118A  208F  120A  158A  	fcall	___aldiv
  2936  0F27  0870               	movf	?___aldiv,w
  2937  0F28  3EFF               	addlw	255
  2938  0F29  1683               	bsf	3,5	;RP0=1, select bank1
  2939  0F2A  1303               	bcf	3,6	;RP1=0, select bank1
  2940  0F2B  0092               	movwf	18	;volatile
  2941  0F2C                     l1545:
  2942                           
  2943                           ;pwm.c: 32:     CCP1M3 = 1;
  2944  0F2C  1283               	bcf	3,5	;RP0=0, select bank0
  2945  0F2D  1303               	bcf	3,6	;RP1=0, select bank0
  2946  0F2E  1597               	bsf	23,3	;volatile
  2947  0F2F                     l1547:
  2948                           
  2949                           ;pwm.c: 33:     CCP1M2 = 1;
  2950  0F2F  1517               	bsf	23,2	;volatile
  2951  0F30                     l1549:
  2952                           
  2953                           ;pwm.c: 35:     T2CKPS0 = 1;
  2954  0F30  1412               	bsf	18,0	;volatile
  2955  0F31                     l1551:
  2956                           
  2957                           ;pwm.c: 36:     T2CKPS1 = 0;
  2958  0F31  1092               	bcf	18,1	;volatile
  2959  0F32                     l1553:
  2960                           
  2961                           ;pwm.c: 37:     TMR2ON = 1;
  2962  0F32  1512               	bsf	18,2	;volatile
  2963  0F33                     l1555:
  2964                           
  2965                           ;pwm.c: 38:     TRISC2 = 0;
  2966  0F33  1683               	bsf	3,5	;RP0=1, select bank1
  2967  0F34  1303               	bcf	3,6	;RP1=0, select bank1
  2968  0F35  1107               	bcf	7,2	;volatile
  2969  0F36                     l39:
  2970  0F36  0008               	return
  2971  0F37                     __end_of_PWM1_Init:
  2972                           
  2973                           	psect	text7
  2974  008F                     __ptext7:	
  2975 ;; *************** function ___aldiv *****************
  2976 ;; Defined at:
  2977 ;;		line 5 in file "C:\Program Files\Microchip\xc8\v2.31\pic\sources\c90\common\aldiv.c"
  2978 ;; Parameters:    Size  Location     Type
  2979 ;;  divisor         4    0[COMMON] long 
  2980 ;;  dividend        4    4[COMMON] long 
  2981 ;; Auto vars:     Size  Location     Type
  2982 ;;  quotient        4    2[BANK0 ] long 
  2983 ;;  sign            1    1[BANK0 ] unsigned char 
  2984 ;;  counter         1    0[BANK0 ] unsigned char 
  2985 ;; Return value:  Size  Location     Type
  2986 ;;                  4    0[COMMON] long 
  2987 ;; Registers used:
  2988 ;;		wreg, status,2, status,0
  2989 ;; Tracked objects:
  2990 ;;		On entry : 0/0
  2991 ;;		On exit  : 0/0
  2992 ;;		Unchanged: 0/0
  2993 ;; Data sizes:     COMMON   BANK0   BANK1   BANK3   BANK2
  2994 ;;      Params:         8       0       0       0       0
  2995 ;;      Locals:         0       6       0       0       0
  2996 ;;      Temps:          1       0       0       0       0
  2997 ;;      Totals:         9       6       0       0       0
  2998 ;;Total ram usage:       15 bytes
  2999 ;; Hardware stack levels used:    1
  3000 ;; This function calls:
  3001 ;;		Nothing
  3002 ;; This function is called by:
  3003 ;;		_PWM1_Init
  3004 ;;		_PWM_dutyCycle
  3005 ;; This function uses a non-reentrant model
  3006 ;;
  3007                           
  3008                           
  3009                           ;psect for function ___aldiv
  3010  008F                     ___aldiv:
  3011  008F                     l1141:	
  3012                           ;incstack = 0
  3013                           ; Regs used in ___aldiv: [wreg+status,2+status,0]
  3014                           
  3015  008F  1283               	bcf	3,5	;RP0=0, select bank0
  3016  0090  1303               	bcf	3,6	;RP1=0, select bank0
  3017  0091  01A1               	clrf	___aldiv@sign
  3018  0092                     l1143:
  3019  0092  1FF3               	btfss	___aldiv@divisor+3,7
  3020  0093  2895               	goto	u1161
  3021  0094  2896               	goto	u1160
  3022  0095                     u1161:
  3023  0095  28A3               	goto	l212
  3024  0096                     u1160:
  3025  0096                     l1145:
  3026  0096  09F0               	comf	___aldiv@divisor,f
  3027  0097  09F1               	comf	___aldiv@divisor+1,f
  3028  0098  09F2               	comf	___aldiv@divisor+2,f
  3029  0099  09F3               	comf	___aldiv@divisor+3,f
  3030  009A  0AF0               	incf	___aldiv@divisor,f
  3031  009B  1903               	skipnz
  3032  009C  0AF1               	incf	___aldiv@divisor+1,f
  3033  009D  1903               	skipnz
  3034  009E  0AF2               	incf	___aldiv@divisor+2,f
  3035  009F  1903               	skipnz
  3036  00A0  0AF3               	incf	___aldiv@divisor+3,f
  3037  00A1  01A1               	clrf	___aldiv@sign
  3038  00A2  0AA1               	incf	___aldiv@sign,f
  3039  00A3                     l212:
  3040  00A3  1FF7               	btfss	___aldiv@dividend+3,7
  3041  00A4  28A6               	goto	u1171
  3042  00A5  28A7               	goto	u1170
  3043  00A6                     u1171:
  3044  00A6  28B6               	goto	l1151
  3045  00A7                     u1170:
  3046  00A7                     l1147:
  3047  00A7  09F4               	comf	___aldiv@dividend,f
  3048  00A8  09F5               	comf	___aldiv@dividend+1,f
  3049  00A9  09F6               	comf	___aldiv@dividend+2,f
  3050  00AA  09F7               	comf	___aldiv@dividend+3,f
  3051  00AB  0AF4               	incf	___aldiv@dividend,f
  3052  00AC  1903               	skipnz
  3053  00AD  0AF5               	incf	___aldiv@dividend+1,f
  3054  00AE  1903               	skipnz
  3055  00AF  0AF6               	incf	___aldiv@dividend+2,f
  3056  00B0  1903               	skipnz
  3057  00B1  0AF7               	incf	___aldiv@dividend+3,f
  3058  00B2                     l1149:
  3059  00B2  3001               	movlw	1
  3060  00B3  00F8               	movwf	??___aldiv
  3061  00B4  0878               	movf	??___aldiv,w
  3062  00B5  06A1               	xorwf	___aldiv@sign,f
  3063  00B6                     l1151:
  3064  00B6  3000               	movlw	0
  3065  00B7  00A5               	movwf	___aldiv@quotient+3
  3066  00B8  3000               	movlw	0
  3067  00B9  00A4               	movwf	___aldiv@quotient+2
  3068  00BA  3000               	movlw	0
  3069  00BB  00A3               	movwf	___aldiv@quotient+1
  3070  00BC  3000               	movlw	0
  3071  00BD  00A2               	movwf	___aldiv@quotient
  3072  00BE                     l1153:
  3073  00BE  0873               	movf	___aldiv@divisor+3,w
  3074  00BF  0472               	iorwf	___aldiv@divisor+2,w
  3075  00C0  0471               	iorwf	___aldiv@divisor+1,w
  3076  00C1  0470               	iorwf	___aldiv@divisor,w
  3077  00C2  1903               	skipnz
  3078  00C3  28C5               	goto	u1181
  3079  00C4  28C6               	goto	u1180
  3080  00C5                     u1181:
  3081  00C5  2913               	goto	l1173
  3082  00C6                     u1180:
  3083  00C6                     l1155:
  3084  00C6  01A0               	clrf	___aldiv@counter
  3085  00C7  0AA0               	incf	___aldiv@counter,f
  3086  00C8  28D6               	goto	l1159
  3087  00C9                     l1157:
  3088  00C9  3001               	movlw	1
  3089  00CA  00F8               	movwf	??___aldiv
  3090  00CB                     u1195:
  3091  00CB  1003               	clrc
  3092  00CC  0DF0               	rlf	___aldiv@divisor,f
  3093  00CD  0DF1               	rlf	___aldiv@divisor+1,f
  3094  00CE  0DF2               	rlf	___aldiv@divisor+2,f
  3095  00CF  0DF3               	rlf	___aldiv@divisor+3,f
  3096  00D0  0BF8               	decfsz	??___aldiv,f
  3097  00D1  28CB               	goto	u1195
  3098  00D2  3001               	movlw	1
  3099  00D3  00F8               	movwf	??___aldiv
  3100  00D4  0878               	movf	??___aldiv,w
  3101  00D5  07A0               	addwf	___aldiv@counter,f
  3102  00D6                     l1159:
  3103  00D6  1FF3               	btfss	___aldiv@divisor+3,7
  3104  00D7  28D9               	goto	u1201
  3105  00D8  28DA               	goto	u1200
  3106  00D9                     u1201:
  3107  00D9  28C9               	goto	l1157
  3108  00DA                     u1200:
  3109  00DA                     l1161:
  3110  00DA  3001               	movlw	1
  3111  00DB  00F8               	movwf	??___aldiv
  3112  00DC                     u1215:
  3113  00DC  1003               	clrc
  3114  00DD  0DA2               	rlf	___aldiv@quotient,f
  3115  00DE  0DA3               	rlf	___aldiv@quotient+1,f
  3116  00DF  0DA4               	rlf	___aldiv@quotient+2,f
  3117  00E0  0DA5               	rlf	___aldiv@quotient+3,f
  3118  00E1  0BF8               	decfsz	??___aldiv,f
  3119  00E2  28DC               	goto	u1215
  3120  00E3                     l1163:
  3121  00E3  0873               	movf	___aldiv@divisor+3,w
  3122  00E4  0277               	subwf	___aldiv@dividend+3,w
  3123  00E5  1D03               	skipz
  3124  00E6  28F1               	goto	u1225
  3125  00E7  0872               	movf	___aldiv@divisor+2,w
  3126  00E8  0276               	subwf	___aldiv@dividend+2,w
  3127  00E9  1D03               	skipz
  3128  00EA  28F1               	goto	u1225
  3129  00EB  0871               	movf	___aldiv@divisor+1,w
  3130  00EC  0275               	subwf	___aldiv@dividend+1,w
  3131  00ED  1D03               	skipz
  3132  00EE  28F1               	goto	u1225
  3133  00EF  0870               	movf	___aldiv@divisor,w
  3134  00F0  0274               	subwf	___aldiv@dividend,w
  3135  00F1                     u1225:
  3136  00F1  1C03               	skipc
  3137  00F2  28F4               	goto	u1221
  3138  00F3  28F5               	goto	u1220
  3139  00F4                     u1221:
  3140  00F4  2904               	goto	l1169
  3141  00F5                     u1220:
  3142  00F5                     l1165:
  3143  00F5  0870               	movf	___aldiv@divisor,w
  3144  00F6  02F4               	subwf	___aldiv@dividend,f
  3145  00F7  0871               	movf	___aldiv@divisor+1,w
  3146  00F8  1C03               	skipc
  3147  00F9  0F71               	incfsz	___aldiv@divisor+1,w
  3148  00FA  02F5               	subwf	___aldiv@dividend+1,f
  3149  00FB  0872               	movf	___aldiv@divisor+2,w
  3150  00FC  1C03               	skipc
  3151  00FD  0F72               	incfsz	___aldiv@divisor+2,w
  3152  00FE  02F6               	subwf	___aldiv@dividend+2,f
  3153  00FF  0873               	movf	___aldiv@divisor+3,w
  3154  0100  1C03               	skipc
  3155  0101  0F73               	incfsz	___aldiv@divisor+3,w
  3156  0102  02F7               	subwf	___aldiv@dividend+3,f
  3157  0103                     l1167:
  3158  0103  1422               	bsf	___aldiv@quotient,0
  3159  0104                     l1169:
  3160  0104  3001               	movlw	1
  3161  0105                     u1235:
  3162  0105  1003               	clrc
  3163  0106  0CF3               	rrf	___aldiv@divisor+3,f
  3164  0107  0CF2               	rrf	___aldiv@divisor+2,f
  3165  0108  0CF1               	rrf	___aldiv@divisor+1,f
  3166  0109  0CF0               	rrf	___aldiv@divisor,f
  3167  010A  3EFF               	addlw	-1
  3168  010B  1D03               	skipz
  3169  010C  2905               	goto	u1235
  3170  010D                     l1171:
  3171  010D  3001               	movlw	1
  3172  010E  02A0               	subwf	___aldiv@counter,f
  3173  010F  1D03               	btfss	3,2
  3174  0110  2912               	goto	u1241
  3175  0111  2913               	goto	u1240
  3176  0112                     u1241:
  3177  0112  28DA               	goto	l1161
  3178  0113                     u1240:
  3179  0113                     l1173:
  3180  0113  0821               	movf	___aldiv@sign,w
  3181  0114  1903               	btfsc	3,2
  3182  0115  2917               	goto	u1251
  3183  0116  2918               	goto	u1250
  3184  0117                     u1251:
  3185  0117  2923               	goto	l1177
  3186  0118                     u1250:
  3187  0118                     l1175:
  3188  0118  09A2               	comf	___aldiv@quotient,f
  3189  0119  09A3               	comf	___aldiv@quotient+1,f
  3190  011A  09A4               	comf	___aldiv@quotient+2,f
  3191  011B  09A5               	comf	___aldiv@quotient+3,f
  3192  011C  0AA2               	incf	___aldiv@quotient,f
  3193  011D  1903               	skipnz
  3194  011E  0AA3               	incf	___aldiv@quotient+1,f
  3195  011F  1903               	skipnz
  3196  0120  0AA4               	incf	___aldiv@quotient+2,f
  3197  0121  1903               	skipnz
  3198  0122  0AA5               	incf	___aldiv@quotient+3,f
  3199  0123                     l1177:
  3200  0123  0825               	movf	___aldiv@quotient+3,w
  3201  0124  00F3               	movwf	?___aldiv+3
  3202  0125  0824               	movf	___aldiv@quotient+2,w
  3203  0126  00F2               	movwf	?___aldiv+2
  3204  0127  0823               	movf	___aldiv@quotient+1,w
  3205  0128  00F1               	movwf	?___aldiv+1
  3206  0129  0822               	movf	___aldiv@quotient,w
  3207  012A  00F0               	movwf	?___aldiv
  3208  012B                     l222:
  3209  012B  0008               	return
  3210  012C                     __end_of___aldiv:
  3211                           
  3212                           	psect	text8
  3213  0F37                     __ptext8:	
  3214 ;; *************** function _ADC_readChannel *****************
  3215 ;; Defined at:
  3216 ;;		line 56 in file "pwm.c"
  3217 ;; Parameters:    Size  Location     Type
  3218 ;;  channel         1    wreg     unsigned char 
  3219 ;; Auto vars:     Size  Location     Type
  3220 ;;  channel         1   13[COMMON] unsigned char 
  3221 ;; Return value:  Size  Location     Type
  3222 ;;                  4   16[BANK0 ] unsigned char 
  3223 ;; Registers used:
  3224 ;;		wreg, status,2, status,0, btemp+1, pclath, cstack
  3225 ;; Tracked objects:
  3226 ;;		On entry : 0/0
  3227 ;;		On exit  : 0/0
  3228 ;;		Unchanged: 0/0
  3229 ;; Data sizes:     COMMON   BANK0   BANK1   BANK3   BANK2
  3230 ;;      Params:         0       4       0       0       0
  3231 ;;      Locals:         1       0       0       0       0
  3232 ;;      Temps:          0       2       0       0       0
  3233 ;;      Totals:         1       6       0       0       0
  3234 ;;Total ram usage:        7 bytes
  3235 ;; Hardware stack levels used:    1
  3236 ;; Hardware stack levels required when called:    1
  3237 ;; This function calls:
  3238 ;;		___xxtofl
  3239 ;; This function is called by:
  3240 ;;		_main
  3241 ;; This function uses a non-reentrant model
  3242 ;;
  3243                           
  3244                           
  3245                           ;psect for function _ADC_readChannel
  3246  0F37                     _ADC_readChannel:
  3247                           
  3248                           ;incstack = 0
  3249                           ; Regs used in _ADC_readChannel: [wreg+status,2+status,0+btemp+1+pclath+cstack]
  3250                           ;ADC_readChannel@channel stored from wreg
  3251  0F37  00FD               	movwf	ADC_readChannel@channel
  3252  0F38                     l1571:
  3253                           
  3254                           ;pwm.c: 57:     if (channel > 13) return 0;
  3255  0F38  300E               	movlw	14
  3256  0F39  027D               	subwf	ADC_readChannel@channel,w
  3257  0F3A  1C03               	skipc
  3258  0F3B  2F3D               	goto	u2221
  3259  0F3C  2F3E               	goto	u2220
  3260  0F3D                     u2221:
  3261  0F3D  2F49               	goto	l1577
  3262  0F3E                     u2220:
  3263  0F3E                     l1573:
  3264  0F3E  3000               	movlw	0
  3265  0F3F  1283               	bcf	3,5	;RP0=0, select bank0
  3266  0F40  1303               	bcf	3,6	;RP1=0, select bank0
  3267  0F41  00B3               	movwf	?_ADC_readChannel+3
  3268  0F42  3000               	movlw	0
  3269  0F43  00B2               	movwf	?_ADC_readChannel+2
  3270  0F44  3000               	movlw	0
  3271  0F45  00B1               	movwf	?_ADC_readChannel+1
  3272  0F46  3000               	movlw	0
  3273  0F47  00B0               	movwf	?_ADC_readChannel
  3274  0F48  2F95               	goto	l50
  3275  0F49                     l1577:
  3276                           
  3277                           ;pwm.c: 58:     ADCON0 &= 0xC5;
  3278  0F49  30C5               	movlw	197
  3279  0F4A  1283               	bcf	3,5	;RP0=0, select bank0
  3280  0F4B  1303               	bcf	3,6	;RP1=0, select bank0
  3281  0F4C  00B4               	movwf	??_ADC_readChannel
  3282  0F4D  0834               	movf	??_ADC_readChannel,w
  3283  0F4E  059F               	andwf	31,f	;volatile
  3284                           
  3285                           ;pwm.c: 59:     ADCON0 |= channel << 3;
  3286  0F4F  087D               	movf	ADC_readChannel@channel,w	;volatile
  3287  0F50  00B4               	movwf	??_ADC_readChannel
  3288  0F51  3002               	movlw	2
  3289  0F52                     u2235:
  3290  0F52  1003               	clrc
  3291  0F53  0DB4               	rlf	??_ADC_readChannel,f
  3292  0F54  3EFF               	addlw	-1
  3293  0F55  1D03               	skipz
  3294  0F56  2F52               	goto	u2235
  3295  0F57  1003               	clrc
  3296  0F58  0D34               	rlf	??_ADC_readChannel,w
  3297  0F59  00B5               	movwf	??_ADC_readChannel+1
  3298  0F5A  0835               	movf	??_ADC_readChannel+1,w
  3299  0F5B  049F               	iorwf	31,f	;volatile
  3300  0F5C                     l1579:
  3301                           
  3302                           ;pwm.c: 60:     _delay((unsigned long)((2)*(8000000/4000.0)));
  3303  0F5C  3006               	movlw	6
  3304  0F5D  1283               	bcf	3,5	;RP0=0, select bank0
  3305  0F5E  1303               	bcf	3,6	;RP1=0, select bank0
  3306  0F5F  00B5               	movwf	??_ADC_readChannel+1
  3307  0F60  302F               	movlw	47
  3308  0F61  00B4               	movwf	??_ADC_readChannel
  3309  0F62                     u2267:
  3310  0F62  0BB4               	decfsz	??_ADC_readChannel,f
  3311  0F63  2F62               	goto	u2267
  3312  0F64  0BB5               	decfsz	??_ADC_readChannel+1,f
  3313  0F65  2F62               	goto	u2267
  3314  0F66  2F67               	nop2
  3315  0F67                     l1581:
  3316                           
  3317                           ;pwm.c: 61:     GO_nDONE = 1;
  3318  0F67  1283               	bcf	3,5	;RP0=0, select bank0
  3319  0F68  1303               	bcf	3,6	;RP1=0, select bank0
  3320  0F69  149F               	bsf	31,1	;volatile
  3321  0F6A                     l51:	
  3322                           ;pwm.c: 62:     while (GO_nDONE);
  3323                           
  3324  0F6A  189F               	btfsc	31,1	;volatile
  3325  0F6B  2F6D               	goto	u2241
  3326  0F6C  2F6E               	goto	u2240
  3327  0F6D                     u2241:
  3328  0F6D  2F6A               	goto	l51
  3329  0F6E                     u2240:
  3330  0F6E                     l1583:
  3331                           
  3332                           ;pwm.c: 63:     return ((ADRESH << 8) + ADRESL);
  3333  0F6E  081E               	movf	30,w	;volatile
  3334  0F6F  00B4               	movwf	??_ADC_readChannel
  3335  0F70  01B5               	clrf	??_ADC_readChannel+1
  3336  0F71  0834               	movf	??_ADC_readChannel,w
  3337  0F72  00B5               	movwf	??_ADC_readChannel+1
  3338  0F73  01B4               	clrf	??_ADC_readChannel
  3339  0F74  1683               	bsf	3,5	;RP0=1, select bank1
  3340  0F75  1303               	bcf	3,6	;RP1=0, select bank1
  3341  0F76  081E               	movf	30,w	;volatile
  3342  0F77  1283               	bcf	3,5	;RP0=0, select bank0
  3343  0F78  1303               	bcf	3,6	;RP1=0, select bank0
  3344  0F79  0734               	addwf	??_ADC_readChannel,w
  3345  0F7A  00A6               	movwf	___xxtofl@val
  3346  0F7B  3000               	movlw	0
  3347  0F7C  1803               	skipnc
  3348  0F7D  3001               	movlw	1
  3349  0F7E  0735               	addwf	??_ADC_readChannel+1,w
  3350  0F7F  00A7               	movwf	___xxtofl@val+1
  3351  0F80  01A8               	clrf	___xxtofl@val+2
  3352  0F81  1BA7               	btfsc	___xxtofl@val+1,7
  3353  0F82  03A8               	decf	___xxtofl@val+2,f
  3354  0F83  0828               	movf	___xxtofl@val+2,w
  3355  0F84  00A9               	movwf	___xxtofl@val+3
  3356  0F85  3001               	movlw	1
  3357  0F86  120A  118A  212C  120A  158A  	fcall	___xxtofl
  3358  0F8B  1283               	bcf	3,5	;RP0=0, select bank0
  3359  0F8C  1303               	bcf	3,6	;RP1=0, select bank0
  3360  0F8D  0829               	movf	?___xxtofl+3,w
  3361  0F8E  00B3               	movwf	?_ADC_readChannel+3
  3362  0F8F  0828               	movf	?___xxtofl+2,w
  3363  0F90  00B2               	movwf	?_ADC_readChannel+2
  3364  0F91  0827               	movf	?___xxtofl+1,w
  3365  0F92  00B1               	movwf	?_ADC_readChannel+1
  3366  0F93  0826               	movf	?___xxtofl,w
  3367  0F94  00B0               	movwf	?_ADC_readChannel
  3368  0F95                     l50:
  3369  0F95  0008               	return
  3370  0F96                     __end_of_ADC_readChannel:
  3371                           
  3372                           	psect	text9
  3373  012C                     __ptext9:	
  3374 ;; *************** function ___xxtofl *****************
  3375 ;; Defined at:
  3376 ;;		line 10 in file "C:\Program Files\Microchip\xc8\v2.31\pic\sources\c90\common\xxtofl.c"
  3377 ;; Parameters:    Size  Location     Type
  3378 ;;  sign            1    wreg     unsigned char 
  3379 ;;  val             4    6[BANK0 ] long 
  3380 ;; Auto vars:     Size  Location     Type
  3381 ;;  sign            1   10[BANK0 ] unsigned char 
  3382 ;;  arg             4   12[BANK0 ] unsigned long 
  3383 ;;  exp             1   11[BANK0 ] unsigned char 
  3384 ;; Return value:  Size  Location     Type
  3385 ;;                  4    6[BANK0 ] unsigned char 
  3386 ;; Registers used:
  3387 ;;		wreg, status,2, status,0
  3388 ;; Tracked objects:
  3389 ;;		On entry : 0/0
  3390 ;;		On exit  : 0/0
  3391 ;;		Unchanged: 0/0
  3392 ;; Data sizes:     COMMON   BANK0   BANK1   BANK3   BANK2
  3393 ;;      Params:         0       4       0       0       0
  3394 ;;      Locals:         0       6       0       0       0
  3395 ;;      Temps:          4       0       0       0       0
  3396 ;;      Totals:         4      10       0       0       0
  3397 ;;Total ram usage:       14 bytes
  3398 ;; Hardware stack levels used:    1
  3399 ;; This function calls:
  3400 ;;		Nothing
  3401 ;; This function is called by:
  3402 ;;		_PWM_dutyCycle
  3403 ;;		_ADC_readChannel
  3404 ;; This function uses a non-reentrant model
  3405 ;;
  3406                           
  3407                           
  3408                           ;psect for function ___xxtofl
  3409  012C                     ___xxtofl:
  3410                           
  3411                           ;incstack = 0
  3412                           ; Regs used in ___xxtofl: [wreg+status,2+status,0]
  3413                           ;___xxtofl@sign stored from wreg
  3414  012C  1283               	bcf	3,5	;RP0=0, select bank0
  3415  012D  1303               	bcf	3,6	;RP1=0, select bank0
  3416  012E  00AA               	movwf	___xxtofl@sign
  3417  012F                     l1499:
  3418  012F  082A               	movf	___xxtofl@sign,w
  3419  0130  1903               	btfsc	3,2
  3420  0131  2933               	goto	u2021
  3421  0132  2934               	goto	u2020
  3422  0133                     u2021:
  3423  0133  2948               	goto	l1505
  3424  0134                     u2020:
  3425  0134                     l1501:
  3426  0134  1FA9               	btfss	___xxtofl@val+3,7
  3427  0135  2937               	goto	u2031
  3428  0136  2938               	goto	u2030
  3429  0137                     u2031:
  3430  0137  2948               	goto	l1505
  3431  0138                     u2030:
  3432  0138                     l1503:
  3433  0138  0926               	comf	___xxtofl@val,w
  3434  0139  00AC               	movwf	___xxtofl@arg
  3435  013A  0927               	comf	___xxtofl@val+1,w
  3436  013B  00AD               	movwf	___xxtofl@arg+1
  3437  013C  0928               	comf	___xxtofl@val+2,w
  3438  013D  00AE               	movwf	___xxtofl@arg+2
  3439  013E  0929               	comf	___xxtofl@val+3,w
  3440  013F  00AF               	movwf	___xxtofl@arg+3
  3441  0140  0AAC               	incf	___xxtofl@arg,f
  3442  0141  1903               	skipnz
  3443  0142  0AAD               	incf	___xxtofl@arg+1,f
  3444  0143  1903               	skipnz
  3445  0144  0AAE               	incf	___xxtofl@arg+2,f
  3446  0145  1903               	skipnz
  3447  0146  0AAF               	incf	___xxtofl@arg+3,f
  3448  0147  2950               	goto	l580
  3449  0148                     l1505:
  3450  0148  0829               	movf	___xxtofl@val+3,w
  3451  0149  00AF               	movwf	___xxtofl@arg+3
  3452  014A  0828               	movf	___xxtofl@val+2,w
  3453  014B  00AE               	movwf	___xxtofl@arg+2
  3454  014C  0827               	movf	___xxtofl@val+1,w
  3455  014D  00AD               	movwf	___xxtofl@arg+1
  3456  014E  0826               	movf	___xxtofl@val,w
  3457  014F  00AC               	movwf	___xxtofl@arg
  3458  0150                     l580:
  3459  0150  0829               	movf	___xxtofl@val+3,w
  3460  0151  0428               	iorwf	___xxtofl@val+2,w
  3461  0152  0427               	iorwf	___xxtofl@val+1,w
  3462  0153  0426               	iorwf	___xxtofl@val,w
  3463  0154  1D03               	skipz
  3464  0155  2957               	goto	u2041
  3465  0156  2958               	goto	u2040
  3466  0157                     u2041:
  3467  0157  2961               	goto	l1511
  3468  0158                     u2040:
  3469  0158                     l1507:
  3470  0158  3000               	movlw	0
  3471  0159  00A9               	movwf	?___xxtofl+3
  3472  015A  3000               	movlw	0
  3473  015B  00A8               	movwf	?___xxtofl+2
  3474  015C  3000               	movlw	0
  3475  015D  00A7               	movwf	?___xxtofl+1
  3476  015E  3000               	movlw	0
  3477  015F  00A6               	movwf	?___xxtofl
  3478  0160  29E7               	goto	l582
  3479  0161                     l1511:
  3480  0161  3096               	movlw	150
  3481  0162  00F9               	movwf	??___xxtofl
  3482  0163  0879               	movf	??___xxtofl,w
  3483  0164  00AB               	movwf	___xxtofl@exp
  3484  0165  2973               	goto	l1515
  3485  0166                     l1513:
  3486  0166  3001               	movlw	1
  3487  0167  00F9               	movwf	??___xxtofl
  3488  0168  0879               	movf	??___xxtofl,w
  3489  0169  07AB               	addwf	___xxtofl@exp,f
  3490  016A  3001               	movlw	1
  3491  016B                     u2055:
  3492  016B  1003               	clrc
  3493  016C  0CAF               	rrf	___xxtofl@arg+3,f
  3494  016D  0CAE               	rrf	___xxtofl@arg+2,f
  3495  016E  0CAD               	rrf	___xxtofl@arg+1,f
  3496  016F  0CAC               	rrf	___xxtofl@arg,f
  3497  0170  3EFF               	addlw	-1
  3498  0171  1D03               	skipz
  3499  0172  296B               	goto	u2055
  3500  0173                     l1515:
  3501  0173  30FE               	movlw	254
  3502  0174  052F               	andwf	___xxtofl@arg+3,w
  3503  0175  1D03               	btfss	3,2
  3504  0176  2978               	goto	u2061
  3505  0177  2979               	goto	u2060
  3506  0178                     u2061:
  3507  0178  2966               	goto	l1513
  3508  0179                     u2060:
  3509  0179  2995               	goto	l586
  3510  017A                     l1517:
  3511  017A  3001               	movlw	1
  3512  017B  00F9               	movwf	??___xxtofl
  3513  017C  0879               	movf	??___xxtofl,w
  3514  017D  07AB               	addwf	___xxtofl@exp,f
  3515  017E                     l1519:
  3516  017E  3001               	movlw	1
  3517  017F  07AC               	addwf	___xxtofl@arg,f
  3518  0180  3000               	movlw	0
  3519  0181  1803               	skipnc
  3520  0182  3001               	movlw	1
  3521  0183  07AD               	addwf	___xxtofl@arg+1,f
  3522  0184  3000               	movlw	0
  3523  0185  1803               	skipnc
  3524  0186  3001               	movlw	1
  3525  0187  07AE               	addwf	___xxtofl@arg+2,f
  3526  0188  3000               	movlw	0
  3527  0189  1803               	skipnc
  3528  018A  3001               	movlw	1
  3529  018B  07AF               	addwf	___xxtofl@arg+3,f
  3530  018C                     l1521:
  3531  018C  3001               	movlw	1
  3532  018D                     u2075:
  3533  018D  1003               	clrc
  3534  018E  0CAF               	rrf	___xxtofl@arg+3,f
  3535  018F  0CAE               	rrf	___xxtofl@arg+2,f
  3536  0190  0CAD               	rrf	___xxtofl@arg+1,f
  3537  0191  0CAC               	rrf	___xxtofl@arg,f
  3538  0192  3EFF               	addlw	-1
  3539  0193  1D03               	skipz
  3540  0194  298D               	goto	u2075
  3541  0195                     l586:
  3542  0195  30FF               	movlw	255
  3543  0196  052F               	andwf	___xxtofl@arg+3,w
  3544  0197  1D03               	btfss	3,2
  3545  0198  299A               	goto	u2081
  3546  0199  299B               	goto	u2080
  3547  019A                     u2081:
  3548  019A  297A               	goto	l1517
  3549  019B                     u2080:
  3550  019B  29A7               	goto	l1525
  3551  019C                     l1523:
  3552  019C  3001               	movlw	1
  3553  019D  02AB               	subwf	___xxtofl@exp,f
  3554  019E  3001               	movlw	1
  3555  019F  00F9               	movwf	??___xxtofl
  3556  01A0                     u2095:
  3557  01A0  1003               	clrc
  3558  01A1  0DAC               	rlf	___xxtofl@arg,f
  3559  01A2  0DAD               	rlf	___xxtofl@arg+1,f
  3560  01A3  0DAE               	rlf	___xxtofl@arg+2,f
  3561  01A4  0DAF               	rlf	___xxtofl@arg+3,f
  3562  01A5  0BF9               	decfsz	??___xxtofl,f
  3563  01A6  29A0               	goto	u2095
  3564  01A7                     l1525:
  3565  01A7  1BAE               	btfsc	___xxtofl@arg+2,7
  3566  01A8  29AA               	goto	u2101
  3567  01A9  29AB               	goto	u2100
  3568  01AA                     u2101:
  3569  01AA  29B1               	goto	l593
  3570  01AB                     u2100:
  3571  01AB                     l1527:
  3572  01AB  3002               	movlw	2
  3573  01AC  022B               	subwf	___xxtofl@exp,w
  3574  01AD  1803               	skipnc
  3575  01AE  29B0               	goto	u2111
  3576  01AF  29B1               	goto	u2110
  3577  01B0                     u2111:
  3578  01B0  299C               	goto	l1523
  3579  01B1                     u2110:
  3580  01B1                     l593:
  3581  01B1  182B               	btfsc	___xxtofl@exp,0
  3582  01B2  29B4               	goto	u2121
  3583  01B3  29B5               	goto	u2120
  3584  01B4                     u2121:
  3585  01B4  29BD               	goto	l594
  3586  01B5                     u2120:
  3587  01B5                     l1529:
  3588  01B5  30FF               	movlw	255
  3589  01B6  05AC               	andwf	___xxtofl@arg,f
  3590  01B7  30FF               	movlw	255
  3591  01B8  05AD               	andwf	___xxtofl@arg+1,f
  3592  01B9  307F               	movlw	127
  3593  01BA  05AE               	andwf	___xxtofl@arg+2,f
  3594  01BB  30FF               	movlw	255
  3595  01BC  05AF               	andwf	___xxtofl@arg+3,f
  3596  01BD                     l594:
  3597  01BD  1003               	clrc
  3598  01BE  0CAB               	rrf	___xxtofl@exp,f
  3599  01BF                     l1531:
  3600  01BF  082B               	movf	___xxtofl@exp,w
  3601  01C0  00F9               	movwf	??___xxtofl
  3602  01C1  01FA               	clrf	??___xxtofl+1
  3603  01C2  01FB               	clrf	??___xxtofl+2
  3604  01C3  01FC               	clrf	??___xxtofl+3
  3605  01C4  3018               	movlw	24
  3606  01C5                     u2135:
  3607  01C5  1003               	clrc
  3608  01C6  0DF9               	rlf	??___xxtofl,f
  3609  01C7  0DFA               	rlf	??___xxtofl+1,f
  3610  01C8  0DFB               	rlf	??___xxtofl+2,f
  3611  01C9  0DFC               	rlf	??___xxtofl+3,f
  3612  01CA                     u2130:
  3613  01CA  3EFF               	addlw	-1
  3614  01CB  1D03               	skipz
  3615  01CC  29C5               	goto	u2135
  3616  01CD  0879               	movf	??___xxtofl,w
  3617  01CE  04AC               	iorwf	___xxtofl@arg,f
  3618  01CF  087A               	movf	??___xxtofl+1,w
  3619  01D0  04AD               	iorwf	___xxtofl@arg+1,f
  3620  01D1  087B               	movf	??___xxtofl+2,w
  3621  01D2  04AE               	iorwf	___xxtofl@arg+2,f
  3622  01D3  087C               	movf	??___xxtofl+3,w
  3623  01D4  04AF               	iorwf	___xxtofl@arg+3,f
  3624  01D5                     l1533:
  3625  01D5  082A               	movf	___xxtofl@sign,w
  3626  01D6  1903               	btfsc	3,2
  3627  01D7  29D9               	goto	u2141
  3628  01D8  29DA               	goto	u2140
  3629  01D9                     u2141:
  3630  01D9  29DF               	goto	l1539
  3631  01DA                     u2140:
  3632  01DA                     l1535:
  3633  01DA  1FA9               	btfss	___xxtofl@val+3,7
  3634  01DB  29DD               	goto	u2151
  3635  01DC  29DE               	goto	u2150
  3636  01DD                     u2151:
  3637  01DD  29DF               	goto	l1539
  3638  01DE                     u2150:
  3639  01DE                     l1537:
  3640  01DE  17AF               	bsf	___xxtofl@arg+3,7
  3641  01DF                     l1539:
  3642  01DF  082F               	movf	___xxtofl@arg+3,w
  3643  01E0  00A9               	movwf	?___xxtofl+3
  3644  01E1  082E               	movf	___xxtofl@arg+2,w
  3645  01E2  00A8               	movwf	?___xxtofl+2
  3646  01E3  082D               	movf	___xxtofl@arg+1,w
  3647  01E4  00A7               	movwf	?___xxtofl+1
  3648  01E5  082C               	movf	___xxtofl@arg,w
  3649  01E6  00A6               	movwf	?___xxtofl
  3650  01E7                     l582:
  3651  01E7  0008               	return
  3652  01E8                     __end_of___xxtofl:
  3653                           
  3654                           	psect	text10
  3655  000A                     __ptext10:	
  3656 ;; *************** function _ADC_Init *****************
  3657 ;; Defined at:
  3658 ;;		line 51 in file "pwm.c"
  3659 ;; Parameters:    Size  Location     Type
  3660 ;;		None
  3661 ;; Auto vars:     Size  Location     Type
  3662 ;;		None
  3663 ;; Return value:  Size  Location     Type
  3664 ;;                  1    wreg      void 
  3665 ;; Registers used:
  3666 ;;		wreg
  3667 ;; Tracked objects:
  3668 ;;		On entry : 0/0
  3669 ;;		On exit  : 0/0
  3670 ;;		Unchanged: 0/0
  3671 ;; Data sizes:     COMMON   BANK0   BANK1   BANK3   BANK2
  3672 ;;      Params:         0       0       0       0       0
  3673 ;;      Locals:         0       0       0       0       0
  3674 ;;      Temps:          0       0       0       0       0
  3675 ;;      Totals:         0       0       0       0       0
  3676 ;;Total ram usage:        0 bytes
  3677 ;; Hardware stack levels used:    1
  3678 ;; This function calls:
  3679 ;;		Nothing
  3680 ;; This function is called by:
  3681 ;;		_main
  3682 ;; This function uses a non-reentrant model
  3683 ;;
  3684                           
  3685                           
  3686                           ;psect for function _ADC_Init
  3687  000A                     _ADC_Init:
  3688  000A                     l1569:	
  3689                           ;incstack = 0
  3690                           ; Regs used in _ADC_Init: [wreg]
  3691                           
  3692                           
  3693                           ;pwm.c: 52:     ADCON0 = 0x41;
  3694  000A  3041               	movlw	65
  3695  000B  1283               	bcf	3,5	;RP0=0, select bank0
  3696  000C  1303               	bcf	3,6	;RP1=0, select bank0
  3697  000D  009F               	movwf	31	;volatile
  3698                           
  3699                           ;pwm.c: 53:     ADCON1 = 0xC0;
  3700  000E  30C0               	movlw	192
  3701  000F  1683               	bsf	3,5	;RP0=1, select bank1
  3702  0010  1303               	bcf	3,6	;RP1=0, select bank1
  3703  0011  009F               	movwf	31	;volatile
  3704  0012                     l46:
  3705  0012  0008               	return
  3706  0013                     __end_of_ADC_Init:
  3707  007E                     btemp	set	126	;btemp
  3708  007E                     wtemp0	set	126
  3709                           
  3710                           	psect	config
  3711                           
  3712                           ;Config register CONFIG1 @ 0x2007
  3713                           ;	Oscillator Selection bits
  3714                           ;	FOSC = HS, HS oscillator: High-speed crystal/resonator on RA6/OSC2/CLKOUT and RA7/OSC1
      +                          /CLKIN
  3715                           ;	Watchdog Timer Enable bit
  3716                           ;	WDTE = OFF, WDT disabled and can be enabled by SWDTEN bit of the WDTCON register
  3717                           ;	Power-up Timer Enable bit
  3718                           ;	PWRTE = ON, PWRT enabled
  3719                           ;	RE3/MCLR pin function select bit
  3720                           ;	MCLRE = 0x1, unprogrammed default
  3721                           ;	Code Protection bit
  3722                           ;	CP = OFF, Program memory code protection is disabled
  3723                           ;	Data Code Protection bit
  3724                           ;	CPD = OFF, Data memory code protection is disabled
  3725                           ;	Brown Out Reset Selection bits
  3726                           ;	BOREN = OFF, BOR disabled
  3727                           ;	Internal External Switchover bit
  3728                           ;	IESO = 0x1, unprogrammed default
  3729                           ;	Fail-Safe Clock Monitor Enabled bit
  3730                           ;	FCMEN = 0x1, unprogrammed default
  3731                           ;	Low Voltage Programming Enable bit
  3732                           ;	LVP = ON, RB3/PGM pin has PGM function, low voltage programming enabled
  3733                           ;	In-Circuit Debugger Mode bit
  3734                           ;	DEBUG = 0x1, unprogrammed default
  3735  2007                     	org	8199
  3736  2007  3CE2               	dw	15586
  3737                           
  3738                           ;Config register CONFIG2 @ 0x2008
  3739                           ;	Brown-out Reset Selection bit
  3740                           ;	BOR4V = 0x1, unprogrammed default
  3741                           ;	Flash Program Memory Self Write Enable bits
  3742                           ;	WRT = OFF, Write protection off
  3743  2008                     	org	8200
  3744  2008  3FFF               	dw	16383

Data Sizes:
    Strings     0
    Constant    0
    Data        4
    BSS         0
    Persistent  0
    Stack       0

Auto Spaces:
    Space          Size  Autos    Used
    COMMON           14     14      14
    BANK0            80     79      79
    BANK1            80     14      18
    BANK3            96      0       0
    BANK2            96      0       0

Pointer List with Targets:

    None.

Critical Paths under _main in COMMON

    _main->_ADC_readChannel
    _PWM_dutyCycle->___xxtofl
    ___fltol->___xxtofl
    ___flmul->___xxtofl
    ___fldiv->___xxtofl
    _PWM1_Init->___aldiv
    _ADC_readChannel->___xxtofl
    ___xxtofl->___aldiv

Critical Paths under _main in BANK0

    _main->___fltol
    _PWM_dutyCycle->___fltol
    ___fltol->___flmul
    ___flmul->___fldiv
    ___fldiv->___xxtofl
    _PWM1_Init->___aldiv
    _ADC_readChannel->___xxtofl
    ___xxtofl->___aldiv

Critical Paths under _main in BANK1

    _main->_PWM_dutyCycle

Critical Paths under _main in BANK3

    None.

Critical Paths under _main in BANK2

    None.

Call Graph Tables:

 ---------------------------------------------------------------------------------
 (Depth) Function   	        Calls       Base Space   Used Autos Params    Refs
 ---------------------------------------------------------------------------------
 (0) _main                                                 8     8      0    7015
                                              6 BANK1      8     8      0
                           _ADC_Init
                    _ADC_readChannel
                          _PWM1_Init
                      _PWM_dutyCycle
                            ___fltol
 ---------------------------------------------------------------------------------
 (1) _PWM_dutyCycle                                        6     4      2    5390
                                              0 BANK1      6     4      2
                            ___aldiv
                            ___fldiv
                            ___flmul
                            ___fltol
                           ___xxtofl
 ---------------------------------------------------------------------------------
 (1) ___fltol                                             11     7      4     381
                                             68 BANK0     11     7      4
                            ___aldiv (ARG)
                            ___fldiv (ARG)
                            ___flmul (ARG)
                           ___xxtofl (ARG)
 ---------------------------------------------------------------------------------
 (2) ___flmul                                             26    18      8    2417
                                             42 BANK0     26    18      8
                          __Umul8_16
                            ___aldiv (ARG)
                            ___fldiv (ARG)
                           ___xxtofl (ARG)
 ---------------------------------------------------------------------------------
 (3) __Umul8_16                                            9     7      2     799
                                              0 COMMON     9     7      2
 ---------------------------------------------------------------------------------
 (2) ___fldiv                                             26    18      8    1273
                                             16 BANK0     26    18      8
                           ___xxtofl (ARG)
 ---------------------------------------------------------------------------------
 (1) _PWM1_Init                                            4     4      0     604
                                              9 COMMON     4     4      0
                            ___aldiv
 ---------------------------------------------------------------------------------
 (2) ___aldiv                                             15     7      8     604
                                              0 COMMON     9     1      8
                                              0 BANK0      6     6      0
 ---------------------------------------------------------------------------------
 (1) _ADC_readChannel                                      7     3      4     594
                                             13 COMMON     1     1      0
                                             16 BANK0      6     2      4
                           ___xxtofl
 ---------------------------------------------------------------------------------
 (2) ___xxtofl                                            14    10      4     550
                                              9 COMMON     4     4      0
                                              6 BANK0     10     6      4
                            ___aldiv (ARG)
 ---------------------------------------------------------------------------------
 (1) _ADC_Init                                             0     0      0       0
 ---------------------------------------------------------------------------------
 Estimated maximum stack depth 3
 ---------------------------------------------------------------------------------

 Call Graph Graphs:

 _main (ROOT)
   _ADC_Init
   _ADC_readChannel
     ___xxtofl
       ___aldiv (ARG)
   _PWM1_Init
     ___aldiv
   _PWM_dutyCycle
     ___aldiv
     ___fldiv
       ___xxtofl (ARG)
         ___aldiv (ARG)
     ___flmul
       __Umul8_16
       ___aldiv (ARG)
       ___fldiv (ARG)
         ___xxtofl (ARG)
           ___aldiv (ARG)
       ___xxtofl (ARG)
         ___aldiv (ARG)
     ___fltol
       ___aldiv (ARG)
       ___fldiv (ARG)
         ___xxtofl (ARG)
           ___aldiv (ARG)
       ___flmul (ARG)
         __Umul8_16
         ___aldiv (ARG)
         ___fldiv (ARG)
           ___xxtofl (ARG)
             ___aldiv (ARG)
         ___xxtofl (ARG)
           ___aldiv (ARG)
       ___xxtofl (ARG)
         ___aldiv (ARG)
     ___xxtofl
       ___aldiv (ARG)
   ___fltol
     ___aldiv (ARG)
     ___fldiv (ARG)
       ___xxtofl (ARG)
         ___aldiv (ARG)
     ___flmul (ARG)
       __Umul8_16
       ___aldiv (ARG)
       ___fldiv (ARG)
         ___xxtofl (ARG)
           ___aldiv (ARG)
       ___xxtofl (ARG)
         ___aldiv (ARG)
     ___xxtofl (ARG)
       ___aldiv (ARG)

 Address spaces:
Name               Size   Autos  Total    Cost      Usage
BANK3               60      0       0       9        0.0%
BITBANK3            60      0       0       8        0.0%
SFR3                 0      0       0       4        0.0%
BITSFR3              0      0       0       4        0.0%
BANK2               60      0       0      11        0.0%
BITBANK2            60      0       0      10        0.0%
SFR2                 0      0       0       5        0.0%
BITSFR2              0      0       0       5        0.0%
BANK1               50      E      12       7       22.5%
BITBANK1            50      0       0       6        0.0%
SFR1                 0      0       0       2        0.0%
BITSFR1              0      0       0       2        0.0%
BANK0               50     4F      4F       5       98.8%
BITBANK0            50      0       0       4        0.0%
SFR0                 0      0       0       1        0.0%
BITSFR0              0      0       0       1        0.0%
COMMON               E      E       E       1      100.0%
BITCOMMON            E      0       0       0        0.0%
CODE                 0      0       0       0        0.0%
DATA                 0      0      6F      12        0.0%
ABS                  0      0      6F       3        0.0%
NULL                 0      0       0       0        0.0%
STACK                0      0       0       2        0.0%
EEDATA             100      0       0       0        0.0%


Microchip Technology PIC Macro Assembler V2.31 build 20201012212115 
Symbol Table                                                                                   Thu Jan 28 22:04:49 2021

            ___fldiv@aexp 0049              ___fldiv@bexp 0048              ___fldiv@sign 0041  
                      l50 0F95                        l51 0F6A                        l43 02A3  
                      l46 0012                        l39 0F36       __Umul8_16@word_mpld 0076  
                     l212 00A3                       l222 012B                       l340 0079  
                     l333 008E                       l343 008E                       l520 0474  
                     l512 03F2                       l518 0464                       l542 074D  
                     l536 07E1                       l555 0EE3                       l580 0150  
                     l548 07D5                       l557 0EF5                       l582 01E7  
                     l496 0300                       l593 01B1                       l594 01BD  
                     l586 0195                       l498 0480                       _PR2 0092  
            ___flmul@aexp 005C              ___flmul@bexp 005D              ___flmul@sign 0057  
            ___flmul@temp 0062              ___flmul@prod 005E              ___fltol@exp1 006E  
                    l1131 0ED9                      l1211 006E                      l1203 0055  
                    l1141 008F                      l1301 03AB                      l1221 02B1  
                    l1133 0EDD                      l1213 007E                      l1205 0067  
                    l1151 00B6                      l1143 0092                      l1311 03C3  
                    l1303 03B3                      l1231 02C8                      l1223 02B5  
                    l1135 0EEC                      l1127 0ED0                      l1215 0083  
                    l1161 00DA                      l1153 00BE                      l1145 0096  
                    l1321 03DB                      l1313 03CC                      l1305 03B5  
                    l1241 02DE                      l1233 02C9                      l1225 02B6  
                    l1217 02A4                      l1137 0EF1                      l1129 0ED2  
                    l1171 010D                      l1163 00E3                      l1155 00C6  
                    l1147 00A7                      l1331 040A                      l1323 03EF  
                    l1307 03BE                      l1315 03D2                      l1251 02F5  
                    l1243 02E2                      l1227 02BB                      l1235 02CB  
                    l1219 02AB                      l1411 0544                      l1403 04EE  
                    l1501 0134                      l1165 00F5                      l1157 00C9  
                    l1173 0113                      l1149 00B2                      l1341 0448  
                    l1333 040E                      l1317 03D6                      l1309 03C2  
                    l1261 0318                      l1253 02F6                      l1245 02E3  
                    l1237 02D3                      l1229 02C0                      l1421 05C1  
                    l1413 0570                      l1405 04FE                      l1181 0013  
                    l1511 0161                      l1503 0138                      l1175 0118  
                    l1167 0103                      l1159 00D6                      l1351 046E  
                    l1343 0457                      l1335 0427                      l1327 03F7  
                    l1319 03D7                      l1271 032F                      l1247 02E8  
                    l1255 02F8                      l1239 02D8                      l1431 0641  
                    l1423 05DE                      l1415 058C                      l1407 050B  
                    l1191 003F                      l1183 0020                      l1521 018C  
                    l1513 0166                      l1505 0148                      l1177 0123  
                    l1169 0104                      l1353 0470                      l1345 045B  
                    l1329 03FC                      l1337 042D                      l1281 035B  
                    l1273 0341                      l1257 0308                      l1265 0321  
                    l1249 02ED                      l1441 06F9                      l1433 066E  
                    l1425 05EE                      l1417 05A8                      l1409 0528  
                    l1361 0488                      l1193 0047                      l1531 01BF  
                    l1523 019C                      l1515 0173                      l1507 0158  
                    l1347 0463                      l1339 043A                      l1283 0360  
                    l1291 0380                      l1275 0349                      l1267 0326  
                    l1259 0314                      l1451 071E                      l1443 0702  
                    l1435 067E                      l1427 060B                      l1419 05B1  
                    l1371 049D                      l1363 048E                      l1195 0049  
                    l1187 0029                      l1533 01D5                      l1525 01A7  
                    l1517 017A                      l1349 046A                      l1293 0392  
                    l1285 0372                      l1277 0351                      l1461 0736  
                    l1453 0727                      l1445 0710                      l1437 06AB  
                    l1429 0624                      l1381 04BA                      l1373 04A5  
                    l1365 0492                      l1197 004D                      l1189 003E  
                    l1535 01DA                      l1527 01AB                      l1519 017E  
                    l1551 0F31                      l1543 0EF6                      l1295 0393  
                    l1287 0376                      l1279 0359                      l1471 0765  
                    l1463 074A                      l1447 0719                      l1455 072D  
                    l1439 06D1                      l1391 04D1                      l1383 04BE  
                    l1375 04A7                      l1367 0493                      l1359 0481  
                    l1537 01DE                      l1529 01B5                      l1553 0F32  
                    l1545 0F2C                      l1297 03A1                      l1289 0377  
                    l1481 07A0                      l1473 0769                      l1457 0731  
                    l1449 071D                      l1393 04D3                      l1385 04BF  
                    l1377 04AF                      l1369 0498                      l1561 0288  
                    l1539 01DF                      l1571 0F38                      l1555 0F33  
                    l1547 0F2F                      l1299 03A5                      l1491 07CD  
                    l1483 07AF                      l1475 0782                      l1467 0752  
                    l1459 0732                      l1395 04DB                      l1387 04C4  
                    l1379 04B4                      l1563 0292                      l1581 0F67  
                    l1573 0F3E                      l1549 0F30                      l1493 07CE  
                    l1485 07B9                      l1469 0757                      l1477 0788  
                    l1397 04E0                      l1389 04C9                      l1565 0293  
                    l1557 01E8                      l1583 0F6E                      l1495 07D9  
                    l1487 07BB                      l1479 0795                      l1399 04E5  
                    l1559 01F3                      l1591 0F9F                      l1569 000A  
                    l1577 0F49                      l1489 07C9                      l1593 0FA4  
                    l1499 012F                      l1579 0F5C                      l1595 0FC2  
                    l1587 0F96                      l1597 0FE9                      l1589 0F9A  
                    l1599 0FF2                      u1200 00DA                      u2000 07AF  
                    u1201 00D9                      u2001 07AE                      u1130 0EDD  
                    u2010 07CD                      u1131 0EDC                      u2011 07CC  
                    u2100 01AB                      u2020 0134                      u1220 00F5  
                    u2101 01AA                      u2021 0133                      u1221 00F4  
                    u2005 07AB                      u2110 01B1                      u2030 0138  
                    u1150 0EF1                      u1310 0066                      u2111 01B0  
                    u2031 0137                      u1215 00DC                      u1151 0EF0  
                    u1311 0065                      u2120 01B5                      u2040 0158  
                    u1240 0113                      u1160 0096                      u1400 02E8  
                    u1320 006D                      u2200 028F                      u2121 01B4  
                    u2041 0157                      u1241 0112                      u1225 00F1  
                    u1161 0095                      u1401 02E7                      u1145 0EE4  
                    u1321 006C                      u1305 0056                      u2201 028B  
                    u2130 01CA                      u1250 0118                      u1170 00A7  
                    u1410 02ED                      u1251 0117                      u1235 0105  
                    u1171 00A6                      u1411 02EC                      u2140 01DA  
                    u2060 0179                      u2220 0F3E                      u1180 00C6  
                    u1500 03AB                      u1420 0308                      u1340 007E  
                    u1260 0020                      u2141 01D9                      u2061 0178  
                    u2221 0F3D                      u1181 00C5                      u1501 03AA  
                    u1421 0307                      u1341 007D                      u1261 001F  
                    u2150 01DE                      u1510 03B3                      u1430 0326  
                    u1350 0083                      u1270 0037                      u2214 0292  
                    u2151 01DD                      u2135 01C5                      u2055 016B  
                    u1511 03B2                      u1431 0325                      u1351 0082  
                    u1335 0070                      u2080 019B                      u2240 0F6E  
                    u2160 0F06                      u1600 040E                      u1440 0360  
                    u1360 02B5                      u1280 004D                      u2081 019A  
                    u2241 0F6D                      u1601 040D                      u1441 035F  
                    u1361 02B4                      u1281 004C                      u2170 0F0F  
                    u1610 041D                      u1530 03C2                      u1370 02BB  
                    u1290 0054                      u2075 018D                      u2235 0F52  
                    u1195 00CB                      u1531 03C1                      u1371 02BA  
                    u1291 0053                      u1275 0032                      u1620 043A  
                    u1380 02C0                      u1700 04C9                      u2180 01F3  
                    u2165 0F01                      u1621 0439                      u1525 03B7  
                    u1381 02BF                      u1701 04C8                      u2181 01F2  
                    u1630 0457                      u1550 03D6                      u1470 0376  
                    u1390 02E2                      u1710 04E0                      u2190 023E  
                    u2095 01A0                      u2175 0F0A                      u1631 0456  
                    u1615 0418                      u1551 03D5                      u1471 0375  
                    u1455 0362                      u1391 02E1                      u1711 04DF  
                    u1640 046E                      u1560 03DB                      u1720 04E5  
                    u1641 046D                      u1625 0436                      u1561 03DA  
                    u1545 03C5                      u1465 036B                      u1721 04E4  
                    u2257 0FF8                      u1570 03EF                      u1490 0392  
                    u1650 0492                      u2267 0F62                      u1635 0453  
                    u1571 03EE                      u1491 0391                      u1811 0633  
                    u1731 0536                      u1651 0491                      u2195 0239  
                    u1580 03F6                      u1900 071D                      u1812 063A  
                    u1732 053D                      u1660 0498                      u1581 03F5  
                    u1485 0379                      u1901 071C                      u1821 0660  
                    u1813 0641                      u1805 060D                      u1741 0552  
                    u1733 0544                      u1661 0497                      u1590 03FC  
                    u1822 0667                      u1742 0559                      u1670 049D  
                    u1591 03FB                      u1495 038E                      u1831 068D  
                    u1823 066E                      u1751 057E                      u1743 0560  
                    u1671 049C                      u1920 0731                      u1840 06B7  
                    u1832 0694                      u1752 0585                      u1680 04BE  
                    u1921 0730                      u1833 069B                      u1761 059A  
                    u1753 058C                      u1681 04BD                      u1930 0736  
                    u1762 05A1                      u1690 04C4                      u1931 0735  
                    u1915 0720                      u1851 06C3                      u1763 05A8  
                    u1691 04C3                      u1940 074A                      u1860 06DF  
                    u1852 06CA                      u1941 0749                      u1853 06D1  
                    u1845 06B2                      u1781 05D0                      u1950 0751  
                    u1782 05D7                      u1951 0750                      u1871 06EB  
                    u1791 05FD                      u1783 05DE                      u1775 05AA  
                    u1960 0757                      u1872 06F2                      u1792 0604  
                    u1961 0756                      u1873 06F9                      u1865 06DA  
                    u1793 060B                      u1970 0769                      u1971 0768  
                    u1980 0778                      u1885 06FB                      u1990 0795  
                    u1991 0794                      u1895 0712                      u1985 0773  
                    u1995 0791                      _main 0F96                      btemp 007E  
        __end_of_ADC_Init 0013                      start 0000           ___fldiv@new_exp 0042  
  ADC_readChannel@channel 007D             ___fltol@sign1 006D           __end_of___aldiv 012C  
                   ?_main 0070                     _CCP1X 00BD           __end_of___fldiv 0481  
                   _CCP1Y 00BC           __end_of___flmul 07E2           __end_of___fltol 008F  
                   _TRISA 0085        __size_of_PWM1_Init 0041                     status 0003  
                   wtemp0 007E             main@adc_value 00A8           __initialization 07E2  
            __end_of_main 1000    __size_of_PWM_dutyCycle 00BC                    ??_main 00A6  
                  _ADCON0 001F                    _ADCON1 009F                    _CCP1M2 00BA  
                  _CCP1M3 00BB                    _ADRESH 001E                    _ADRESL 009E  
                  _CCPR1L 0015                    _TMR2ON 0092                    _TRISC2 043A  
        __end_of___xxtofl 01E8         __end_of_PWM1_Init 0F37                 ??___aldiv 0078  
               ??___fldiv 0038                 ??___flmul 0052                 ??___fltol 0068  
__size_of_ADC_readChannel 005F        __size_of__Umul8_16 0027                 ?_ADC_Init 0070  
           _PWM_dutyCycle 01E8              ___xxtofl@arg 002C              ___xxtofl@exp 002B  
            ___xxtofl@val 0026   __end_of__initialization 07FC                ___fltol@f1 0064  
          __pcstackCOMMON 0070              __pidataBANK1 0006                ??_ADC_Init 0070  
          ?_PWM_dutyCycle 00A0         __end_of__Umul8_16 0EF6                __pmaintext 0F96  
                 _T2CKPS0 0090                   _T2CKPS1 0091                 ?___xxtofl 0026  
       ??_ADC_readChannel 0034                   ___aldiv 008F                   ___fldiv 02A4  
                 ___flmul 0481                   ___fltol 0013                   __ptext1 01E8  
                 __ptext2 0013                   __ptext3 0481                   __ptext4 0ECF  
                 __ptext5 02A4                   __ptext6 0EF6                   __ptext7 008F  
                 __ptext8 0F37                   __ptext9 012C                ??___xxtofl 0079  
         ??_PWM_dutyCycle 00A2          ___aldiv@dividend 0074      end_of_initialization 07FC  
        ___aldiv@quotient 0022                 _PWM1_Init 0EF6             ___xxtofl@sign 002A  
             ___fldiv@grs 0044               ___fldiv@rem 003D         __size_of_ADC_Init 0009  
             ___flmul@grs 0058                ?_PWM1_Init 0070       start_initialization 07E2  
               __Umul8_16 0ECF               __pdataBANK1 00AE           _ADC_readChannel 0F37  
               ___fldiv@a 0030                 ___fldiv@b 0034                 ___flmul@a 004E  
               ___flmul@b 004A                 ___latbits 0002             __pcstackBANK0 0020  
           __pcstackBANK1 00A0         __size_of___xxtofl 00BC                  ?___aldiv 0070  
                ?___fldiv 0030                  ?___flmul 004A                  ?___fltol 0064  
              ?__Umul8_16 0070               ??_PWM1_Init 0079                  _ADC_Init 000A  
         ___aldiv@divisor 0070           ___aldiv@counter 0020   __end_of_ADC_readChannel 0F96  
                _GO_nDONE 00F9                  _PWM_freq 00AE     __end_of_PWM_dutyCycle 02A4  
             ??__Umul8_16 0072          __size_of___aldiv 009D          __size_of___fldiv 01DD  
        __size_of___flmul 0361          __size_of___fltol 007C                  ___xxtofl 012C  
                _main$669 00AC                  __ptext10 000A             __size_of_main 006A  
        ?_ADC_readChannel 0030    __Umul8_16@multiplicand 0070              ___aldiv@sign 0021  
       PWM_dutyCycle@duty 00A0      __Umul8_16@multiplier 0078         __Umul8_16@product 0074  
